Archive member included because of file (symbol)

/home/aselsan/Desktop/IMX7/toolchain/gcc-arm-none-eabi-4_9-2015q3/bin/../lib/gcc/arm-none-eabi/4.9.3/../../../../arm-none-eabi/lib/armv7e-m/fpu/libc_nano.a(lib_a-assert.o)
                              CMakeFiles/str_echo_freertos.dir/home/aselsan/Desktop/GPT_BACKUP/freertos-colibri-imx7/platform/drivers/src/sema4.c.obj (__assert_func)
/home/aselsan/Desktop/IMX7/toolchain/gcc-arm-none-eabi-4_9-2015q3/bin/../lib/gcc/arm-none-eabi/4.9.3/../../../../arm-none-eabi/lib/armv7e-m/fpu/libc_nano.a(lib_a-exit.o)
                              /home/aselsan/Desktop/IMX7/toolchain/gcc-arm-none-eabi-4_9-2015q3/bin/../lib/gcc/arm-none-eabi/4.9.3/../../../../arm-none-eabi/lib/armv7e-m/fpu/crt0.o (exit)
/home/aselsan/Desktop/IMX7/toolchain/gcc-arm-none-eabi-4_9-2015q3/bin/../lib/gcc/arm-none-eabi/4.9.3/../../../../arm-none-eabi/lib/armv7e-m/fpu/libc_nano.a(lib_a-fprintf.o)
                              /home/aselsan/Desktop/IMX7/toolchain/gcc-arm-none-eabi-4_9-2015q3/bin/../lib/gcc/arm-none-eabi/4.9.3/../../../../arm-none-eabi/lib/armv7e-m/fpu/libc_nano.a(lib_a-assert.o) (fiprintf)
/home/aselsan/Desktop/IMX7/toolchain/gcc-arm-none-eabi-4_9-2015q3/bin/../lib/gcc/arm-none-eabi/4.9.3/../../../../arm-none-eabi/lib/armv7e-m/fpu/libc_nano.a(lib_a-impure.o)
                              /home/aselsan/Desktop/IMX7/toolchain/gcc-arm-none-eabi-4_9-2015q3/bin/../lib/gcc/arm-none-eabi/4.9.3/../../../../arm-none-eabi/lib/armv7e-m/fpu/libc_nano.a(lib_a-exit.o) (_global_impure_ptr)
/home/aselsan/Desktop/IMX7/toolchain/gcc-arm-none-eabi-4_9-2015q3/bin/../lib/gcc/arm-none-eabi/4.9.3/../../../../arm-none-eabi/lib/armv7e-m/fpu/libc_nano.a(lib_a-init.o)
                              /home/aselsan/Desktop/IMX7/toolchain/gcc-arm-none-eabi-4_9-2015q3/bin/../lib/gcc/arm-none-eabi/4.9.3/../../../../arm-none-eabi/lib/armv7e-m/fpu/crt0.o (__libc_init_array)
/home/aselsan/Desktop/IMX7/toolchain/gcc-arm-none-eabi-4_9-2015q3/bin/../lib/gcc/arm-none-eabi/4.9.3/../../../../arm-none-eabi/lib/armv7e-m/fpu/libc_nano.a(lib_a-memcpy.o)
                              CMakeFiles/str_echo_freertos.dir/home/aselsan/Desktop/GPT_BACKUP/freertos-colibri-imx7/middleware/multicore/open-amp/porting/env/freertos/rpmsg_porting.c.obj (memcpy)
/home/aselsan/Desktop/IMX7/toolchain/gcc-arm-none-eabi-4_9-2015q3/bin/../lib/gcc/arm-none-eabi/4.9.3/../../../../arm-none-eabi/lib/armv7e-m/fpu/libc_nano.a(lib_a-memset.o)
                              /home/aselsan/Desktop/IMX7/toolchain/gcc-arm-none-eabi-4_9-2015q3/bin/../lib/gcc/arm-none-eabi/4.9.3/../../../../arm-none-eabi/lib/armv7e-m/fpu/crt0.o (memset)
/home/aselsan/Desktop/IMX7/toolchain/gcc-arm-none-eabi-4_9-2015q3/bin/../lib/gcc/arm-none-eabi/4.9.3/../../../../arm-none-eabi/lib/armv7e-m/fpu/libc_nano.a(lib_a-nano-vfprintf.o)
                              /home/aselsan/Desktop/IMX7/toolchain/gcc-arm-none-eabi-4_9-2015q3/bin/../lib/gcc/arm-none-eabi/4.9.3/../../../../arm-none-eabi/lib/armv7e-m/fpu/libc_nano.a(lib_a-fprintf.o) (_vfprintf_r)
/home/aselsan/Desktop/IMX7/toolchain/gcc-arm-none-eabi-4_9-2015q3/bin/../lib/gcc/arm-none-eabi/4.9.3/../../../../arm-none-eabi/lib/armv7e-m/fpu/libc_nano.a(lib_a-nano-vfprintf_i.o)
                              /home/aselsan/Desktop/IMX7/toolchain/gcc-arm-none-eabi-4_9-2015q3/bin/../lib/gcc/arm-none-eabi/4.9.3/../../../../arm-none-eabi/lib/armv7e-m/fpu/libc_nano.a(lib_a-nano-vfprintf.o) (_printf_i)
/home/aselsan/Desktop/IMX7/toolchain/gcc-arm-none-eabi-4_9-2015q3/bin/../lib/gcc/arm-none-eabi/4.9.3/../../../../arm-none-eabi/lib/armv7e-m/fpu/libc_nano.a(lib_a-strcmp.o)
                              CMakeFiles/str_echo_freertos.dir/home/aselsan/Desktop/GPT_BACKUP/freertos-colibri-imx7/middleware/multicore/open-amp/porting/env/freertos/rpmsg_porting.c.obj (strcmp)
/home/aselsan/Desktop/IMX7/toolchain/gcc-arm-none-eabi-4_9-2015q3/bin/../lib/gcc/arm-none-eabi/4.9.3/../../../../arm-none-eabi/lib/armv7e-m/fpu/libc_nano.a(lib_a-strlen.o)
                              CMakeFiles/str_echo_freertos.dir/home/aselsan/Desktop/GPT_BACKUP/freertos-colibri-imx7/platform/utilities/src/print_scan.c.obj (strlen)
/home/aselsan/Desktop/IMX7/toolchain/gcc-arm-none-eabi-4_9-2015q3/bin/../lib/gcc/arm-none-eabi/4.9.3/../../../../arm-none-eabi/lib/armv7e-m/fpu/libc_nano.a(lib_a-strncmp.o)
                              CMakeFiles/str_echo_freertos.dir/home/aselsan/Desktop/GPT_BACKUP/freertos-colibri-imx7/middleware/multicore/open-amp/porting/env/freertos/rpmsg_porting.c.obj (strncmp)
/home/aselsan/Desktop/IMX7/toolchain/gcc-arm-none-eabi-4_9-2015q3/bin/../lib/gcc/arm-none-eabi/4.9.3/../../../../arm-none-eabi/lib/armv7e-m/fpu/libc_nano.a(lib_a-strncpy.o)
                              CMakeFiles/str_echo_freertos.dir/home/aselsan/Desktop/GPT_BACKUP/freertos-colibri-imx7/middleware/multicore/open-amp/porting/env/freertos/rpmsg_porting.c.obj (strncpy)
/home/aselsan/Desktop/IMX7/toolchain/gcc-arm-none-eabi-4_9-2015q3/bin/../lib/gcc/arm-none-eabi/4.9.3/../../../../arm-none-eabi/lib/armv7e-m/fpu/libc_nano.a(lib_a-wbuf.o)
                              /home/aselsan/Desktop/IMX7/toolchain/gcc-arm-none-eabi-4_9-2015q3/bin/../lib/gcc/arm-none-eabi/4.9.3/../../../../arm-none-eabi/lib/armv7e-m/fpu/libc_nano.a(lib_a-nano-vfprintf.o) (__swbuf_r)
/home/aselsan/Desktop/IMX7/toolchain/gcc-arm-none-eabi-4_9-2015q3/bin/../lib/gcc/arm-none-eabi/4.9.3/../../../../arm-none-eabi/lib/armv7e-m/fpu/libc_nano.a(lib_a-wsetup.o)
                              /home/aselsan/Desktop/IMX7/toolchain/gcc-arm-none-eabi-4_9-2015q3/bin/../lib/gcc/arm-none-eabi/4.9.3/../../../../arm-none-eabi/lib/armv7e-m/fpu/libc_nano.a(lib_a-nano-vfprintf.o) (__swsetup_r)
/home/aselsan/Desktop/IMX7/toolchain/gcc-arm-none-eabi-4_9-2015q3/bin/../lib/gcc/arm-none-eabi/4.9.3/../../../../arm-none-eabi/lib/armv7e-m/fpu/libc_nano.a(lib_a-abort.o)
                              /home/aselsan/Desktop/IMX7/toolchain/gcc-arm-none-eabi-4_9-2015q3/bin/../lib/gcc/arm-none-eabi/4.9.3/../../../../arm-none-eabi/lib/armv7e-m/fpu/libc_nano.a(lib_a-assert.o) (abort)
/home/aselsan/Desktop/IMX7/toolchain/gcc-arm-none-eabi-4_9-2015q3/bin/../lib/gcc/arm-none-eabi/4.9.3/../../../../arm-none-eabi/lib/armv7e-m/fpu/libc_nano.a(lib_a-fflush.o)
                              /home/aselsan/Desktop/IMX7/toolchain/gcc-arm-none-eabi-4_9-2015q3/bin/../lib/gcc/arm-none-eabi/4.9.3/../../../../arm-none-eabi/lib/armv7e-m/fpu/libc_nano.a(lib_a-wbuf.o) (_fflush_r)
/home/aselsan/Desktop/IMX7/toolchain/gcc-arm-none-eabi-4_9-2015q3/bin/../lib/gcc/arm-none-eabi/4.9.3/../../../../arm-none-eabi/lib/armv7e-m/fpu/libc_nano.a(lib_a-findfp.o)
                              /home/aselsan/Desktop/IMX7/toolchain/gcc-arm-none-eabi-4_9-2015q3/bin/../lib/gcc/arm-none-eabi/4.9.3/../../../../arm-none-eabi/lib/armv7e-m/fpu/libc_nano.a(lib_a-nano-vfprintf.o) (__sinit)
/home/aselsan/Desktop/IMX7/toolchain/gcc-arm-none-eabi-4_9-2015q3/bin/../lib/gcc/arm-none-eabi/4.9.3/../../../../arm-none-eabi/lib/armv7e-m/fpu/libc_nano.a(lib_a-fvwrite.o)
                              /home/aselsan/Desktop/IMX7/toolchain/gcc-arm-none-eabi-4_9-2015q3/bin/../lib/gcc/arm-none-eabi/4.9.3/../../../../arm-none-eabi/lib/armv7e-m/fpu/libc_nano.a(lib_a-nano-vfprintf.o) (__sfvwrite_r)
/home/aselsan/Desktop/IMX7/toolchain/gcc-arm-none-eabi-4_9-2015q3/bin/../lib/gcc/arm-none-eabi/4.9.3/../../../../arm-none-eabi/lib/armv7e-m/fpu/libc_nano.a(lib_a-fwalk.o)
                              /home/aselsan/Desktop/IMX7/toolchain/gcc-arm-none-eabi-4_9-2015q3/bin/../lib/gcc/arm-none-eabi/4.9.3/../../../../arm-none-eabi/lib/armv7e-m/fpu/libc_nano.a(lib_a-findfp.o) (_fwalk)
/home/aselsan/Desktop/IMX7/toolchain/gcc-arm-none-eabi-4_9-2015q3/bin/../lib/gcc/arm-none-eabi/4.9.3/../../../../arm-none-eabi/lib/armv7e-m/fpu/libc_nano.a(lib_a-makebuf.o)
                              /home/aselsan/Desktop/IMX7/toolchain/gcc-arm-none-eabi-4_9-2015q3/bin/../lib/gcc/arm-none-eabi/4.9.3/../../../../arm-none-eabi/lib/armv7e-m/fpu/libc_nano.a(lib_a-wsetup.o) (__smakebuf_r)
/home/aselsan/Desktop/IMX7/toolchain/gcc-arm-none-eabi-4_9-2015q3/bin/../lib/gcc/arm-none-eabi/4.9.3/../../../../arm-none-eabi/lib/armv7e-m/fpu/libc_nano.a(lib_a-memchr.o)
                              /home/aselsan/Desktop/IMX7/toolchain/gcc-arm-none-eabi-4_9-2015q3/bin/../lib/gcc/arm-none-eabi/4.9.3/../../../../arm-none-eabi/lib/armv7e-m/fpu/libc_nano.a(lib_a-nano-vfprintf.o) (memchr)
/home/aselsan/Desktop/IMX7/toolchain/gcc-arm-none-eabi-4_9-2015q3/bin/../lib/gcc/arm-none-eabi/4.9.3/../../../../arm-none-eabi/lib/armv7e-m/fpu/libc_nano.a(lib_a-memmove.o)
                              /home/aselsan/Desktop/IMX7/toolchain/gcc-arm-none-eabi-4_9-2015q3/bin/../lib/gcc/arm-none-eabi/4.9.3/../../../../arm-none-eabi/lib/armv7e-m/fpu/libc_nano.a(lib_a-fvwrite.o) (memmove)
/home/aselsan/Desktop/IMX7/toolchain/gcc-arm-none-eabi-4_9-2015q3/bin/../lib/gcc/arm-none-eabi/4.9.3/../../../../arm-none-eabi/lib/armv7e-m/fpu/libc_nano.a(lib_a-nano-freer.o)
                              /home/aselsan/Desktop/IMX7/toolchain/gcc-arm-none-eabi-4_9-2015q3/bin/../lib/gcc/arm-none-eabi/4.9.3/../../../../arm-none-eabi/lib/armv7e-m/fpu/libc_nano.a(lib_a-wsetup.o) (_free_r)
/home/aselsan/Desktop/IMX7/toolchain/gcc-arm-none-eabi-4_9-2015q3/bin/../lib/gcc/arm-none-eabi/4.9.3/../../../../arm-none-eabi/lib/armv7e-m/fpu/libc_nano.a(lib_a-nano-mallocr.o)
                              /home/aselsan/Desktop/IMX7/toolchain/gcc-arm-none-eabi-4_9-2015q3/bin/../lib/gcc/arm-none-eabi/4.9.3/../../../../arm-none-eabi/lib/armv7e-m/fpu/libc_nano.a(lib_a-findfp.o) (_malloc_r)
/home/aselsan/Desktop/IMX7/toolchain/gcc-arm-none-eabi-4_9-2015q3/bin/../lib/gcc/arm-none-eabi/4.9.3/../../../../arm-none-eabi/lib/armv7e-m/fpu/libc_nano.a(lib_a-nano-reallocr.o)
                              /home/aselsan/Desktop/IMX7/toolchain/gcc-arm-none-eabi-4_9-2015q3/bin/../lib/gcc/arm-none-eabi/4.9.3/../../../../arm-none-eabi/lib/armv7e-m/fpu/libc_nano.a(lib_a-fvwrite.o) (_realloc_r)
/home/aselsan/Desktop/IMX7/toolchain/gcc-arm-none-eabi-4_9-2015q3/bin/../lib/gcc/arm-none-eabi/4.9.3/../../../../arm-none-eabi/lib/armv7e-m/fpu/libc_nano.a(lib_a-sbrkr.o)
                              /home/aselsan/Desktop/IMX7/toolchain/gcc-arm-none-eabi-4_9-2015q3/bin/../lib/gcc/arm-none-eabi/4.9.3/../../../../arm-none-eabi/lib/armv7e-m/fpu/libc_nano.a(lib_a-nano-mallocr.o) (_sbrk_r)
/home/aselsan/Desktop/IMX7/toolchain/gcc-arm-none-eabi-4_9-2015q3/bin/../lib/gcc/arm-none-eabi/4.9.3/../../../../arm-none-eabi/lib/armv7e-m/fpu/libc_nano.a(lib_a-signal.o)
                              /home/aselsan/Desktop/IMX7/toolchain/gcc-arm-none-eabi-4_9-2015q3/bin/../lib/gcc/arm-none-eabi/4.9.3/../../../../arm-none-eabi/lib/armv7e-m/fpu/libc_nano.a(lib_a-abort.o) (raise)
/home/aselsan/Desktop/IMX7/toolchain/gcc-arm-none-eabi-4_9-2015q3/bin/../lib/gcc/arm-none-eabi/4.9.3/../../../../arm-none-eabi/lib/armv7e-m/fpu/libc_nano.a(lib_a-signalr.o)
                              /home/aselsan/Desktop/IMX7/toolchain/gcc-arm-none-eabi-4_9-2015q3/bin/../lib/gcc/arm-none-eabi/4.9.3/../../../../arm-none-eabi/lib/armv7e-m/fpu/libc_nano.a(lib_a-signal.o) (_kill_r)
/home/aselsan/Desktop/IMX7/toolchain/gcc-arm-none-eabi-4_9-2015q3/bin/../lib/gcc/arm-none-eabi/4.9.3/../../../../arm-none-eabi/lib/armv7e-m/fpu/libc_nano.a(lib_a-stdio.o)
                              /home/aselsan/Desktop/IMX7/toolchain/gcc-arm-none-eabi-4_9-2015q3/bin/../lib/gcc/arm-none-eabi/4.9.3/../../../../arm-none-eabi/lib/armv7e-m/fpu/libc_nano.a(lib_a-findfp.o) (__sread)
/home/aselsan/Desktop/IMX7/toolchain/gcc-arm-none-eabi-4_9-2015q3/bin/../lib/gcc/arm-none-eabi/4.9.3/../../../../arm-none-eabi/lib/armv7e-m/fpu/libc_nano.a(lib_a-writer.o)
                              /home/aselsan/Desktop/IMX7/toolchain/gcc-arm-none-eabi-4_9-2015q3/bin/../lib/gcc/arm-none-eabi/4.9.3/../../../../arm-none-eabi/lib/armv7e-m/fpu/libc_nano.a(lib_a-stdio.o) (_write_r)
/home/aselsan/Desktop/IMX7/toolchain/gcc-arm-none-eabi-4_9-2015q3/bin/../lib/gcc/arm-none-eabi/4.9.3/../../../../arm-none-eabi/lib/armv7e-m/fpu/libc_nano.a(lib_a-closer.o)
                              /home/aselsan/Desktop/IMX7/toolchain/gcc-arm-none-eabi-4_9-2015q3/bin/../lib/gcc/arm-none-eabi/4.9.3/../../../../arm-none-eabi/lib/armv7e-m/fpu/libc_nano.a(lib_a-stdio.o) (_close_r)
/home/aselsan/Desktop/IMX7/toolchain/gcc-arm-none-eabi-4_9-2015q3/bin/../lib/gcc/arm-none-eabi/4.9.3/../../../../arm-none-eabi/lib/armv7e-m/fpu/libc_nano.a(lib_a-fstatr.o)
                              /home/aselsan/Desktop/IMX7/toolchain/gcc-arm-none-eabi-4_9-2015q3/bin/../lib/gcc/arm-none-eabi/4.9.3/../../../../arm-none-eabi/lib/armv7e-m/fpu/libc_nano.a(lib_a-makebuf.o) (_fstat_r)
/home/aselsan/Desktop/IMX7/toolchain/gcc-arm-none-eabi-4_9-2015q3/bin/../lib/gcc/arm-none-eabi/4.9.3/../../../../arm-none-eabi/lib/armv7e-m/fpu/libc_nano.a(lib_a-isattyr.o)
                              /home/aselsan/Desktop/IMX7/toolchain/gcc-arm-none-eabi-4_9-2015q3/bin/../lib/gcc/arm-none-eabi/4.9.3/../../../../arm-none-eabi/lib/armv7e-m/fpu/libc_nano.a(lib_a-makebuf.o) (_isatty_r)
/home/aselsan/Desktop/IMX7/toolchain/gcc-arm-none-eabi-4_9-2015q3/bin/../lib/gcc/arm-none-eabi/4.9.3/../../../../arm-none-eabi/lib/armv7e-m/fpu/libc_nano.a(lib_a-lseekr.o)
                              /home/aselsan/Desktop/IMX7/toolchain/gcc-arm-none-eabi-4_9-2015q3/bin/../lib/gcc/arm-none-eabi/4.9.3/../../../../arm-none-eabi/lib/armv7e-m/fpu/libc_nano.a(lib_a-stdio.o) (_lseek_r)
/home/aselsan/Desktop/IMX7/toolchain/gcc-arm-none-eabi-4_9-2015q3/bin/../lib/gcc/arm-none-eabi/4.9.3/../../../../arm-none-eabi/lib/armv7e-m/fpu/libc_nano.a(lib_a-nano-msizer.o)
                              /home/aselsan/Desktop/IMX7/toolchain/gcc-arm-none-eabi-4_9-2015q3/bin/../lib/gcc/arm-none-eabi/4.9.3/../../../../arm-none-eabi/lib/armv7e-m/fpu/libc_nano.a(lib_a-nano-reallocr.o) (_malloc_usable_size_r)
/home/aselsan/Desktop/IMX7/toolchain/gcc-arm-none-eabi-4_9-2015q3/bin/../lib/gcc/arm-none-eabi/4.9.3/../../../../arm-none-eabi/lib/armv7e-m/fpu/libc_nano.a(lib_a-readr.o)
                              /home/aselsan/Desktop/IMX7/toolchain/gcc-arm-none-eabi-4_9-2015q3/bin/../lib/gcc/arm-none-eabi/4.9.3/../../../../arm-none-eabi/lib/armv7e-m/fpu/libc_nano.a(lib_a-stdio.o) (_read_r)
/home/aselsan/Desktop/IMX7/toolchain/gcc-arm-none-eabi-4_9-2015q3/bin/../lib/gcc/arm-none-eabi/4.9.3/../../../../arm-none-eabi/lib/armv7e-m/fpu/libc_nano.a(lib_a-reent.o)
                              /home/aselsan/Desktop/IMX7/toolchain/gcc-arm-none-eabi-4_9-2015q3/bin/../lib/gcc/arm-none-eabi/4.9.3/../../../../arm-none-eabi/lib/armv7e-m/fpu/libc_nano.a(lib_a-sbrkr.o) (errno)
/home/aselsan/Desktop/IMX7/toolchain/gcc-arm-none-eabi-4_9-2015q3/bin/../lib/gcc/arm-none-eabi/4.9.3/../../../../arm-none-eabi/lib/armv7e-m/fpu/libnosys.a(close.o)
                              /home/aselsan/Desktop/IMX7/toolchain/gcc-arm-none-eabi-4_9-2015q3/bin/../lib/gcc/arm-none-eabi/4.9.3/../../../../arm-none-eabi/lib/armv7e-m/fpu/libc_nano.a(lib_a-closer.o) (_close)
/home/aselsan/Desktop/IMX7/toolchain/gcc-arm-none-eabi-4_9-2015q3/bin/../lib/gcc/arm-none-eabi/4.9.3/../../../../arm-none-eabi/lib/armv7e-m/fpu/libnosys.a(fstat.o)
                              /home/aselsan/Desktop/IMX7/toolchain/gcc-arm-none-eabi-4_9-2015q3/bin/../lib/gcc/arm-none-eabi/4.9.3/../../../../arm-none-eabi/lib/armv7e-m/fpu/libc_nano.a(lib_a-fstatr.o) (_fstat)
/home/aselsan/Desktop/IMX7/toolchain/gcc-arm-none-eabi-4_9-2015q3/bin/../lib/gcc/arm-none-eabi/4.9.3/../../../../arm-none-eabi/lib/armv7e-m/fpu/libnosys.a(getpid.o)
                              /home/aselsan/Desktop/IMX7/toolchain/gcc-arm-none-eabi-4_9-2015q3/bin/../lib/gcc/arm-none-eabi/4.9.3/../../../../arm-none-eabi/lib/armv7e-m/fpu/libc_nano.a(lib_a-signalr.o) (_getpid)
/home/aselsan/Desktop/IMX7/toolchain/gcc-arm-none-eabi-4_9-2015q3/bin/../lib/gcc/arm-none-eabi/4.9.3/../../../../arm-none-eabi/lib/armv7e-m/fpu/libnosys.a(isatty.o)
                              /home/aselsan/Desktop/IMX7/toolchain/gcc-arm-none-eabi-4_9-2015q3/bin/../lib/gcc/arm-none-eabi/4.9.3/../../../../arm-none-eabi/lib/armv7e-m/fpu/libc_nano.a(lib_a-isattyr.o) (_isatty)
/home/aselsan/Desktop/IMX7/toolchain/gcc-arm-none-eabi-4_9-2015q3/bin/../lib/gcc/arm-none-eabi/4.9.3/../../../../arm-none-eabi/lib/armv7e-m/fpu/libnosys.a(kill.o)
                              /home/aselsan/Desktop/IMX7/toolchain/gcc-arm-none-eabi-4_9-2015q3/bin/../lib/gcc/arm-none-eabi/4.9.3/../../../../arm-none-eabi/lib/armv7e-m/fpu/libc_nano.a(lib_a-signalr.o) (_kill)
/home/aselsan/Desktop/IMX7/toolchain/gcc-arm-none-eabi-4_9-2015q3/bin/../lib/gcc/arm-none-eabi/4.9.3/../../../../arm-none-eabi/lib/armv7e-m/fpu/libnosys.a(lseek.o)
                              /home/aselsan/Desktop/IMX7/toolchain/gcc-arm-none-eabi-4_9-2015q3/bin/../lib/gcc/arm-none-eabi/4.9.3/../../../../arm-none-eabi/lib/armv7e-m/fpu/libc_nano.a(lib_a-lseekr.o) (_lseek)
/home/aselsan/Desktop/IMX7/toolchain/gcc-arm-none-eabi-4_9-2015q3/bin/../lib/gcc/arm-none-eabi/4.9.3/../../../../arm-none-eabi/lib/armv7e-m/fpu/libnosys.a(sbrk.o)
                              /home/aselsan/Desktop/IMX7/toolchain/gcc-arm-none-eabi-4_9-2015q3/bin/../lib/gcc/arm-none-eabi/4.9.3/../../../../arm-none-eabi/lib/armv7e-m/fpu/libc_nano.a(lib_a-sbrkr.o) (_sbrk)
/home/aselsan/Desktop/IMX7/toolchain/gcc-arm-none-eabi-4_9-2015q3/bin/../lib/gcc/arm-none-eabi/4.9.3/../../../../arm-none-eabi/lib/armv7e-m/fpu/libnosys.a(_exit.o)
                              /home/aselsan/Desktop/IMX7/toolchain/gcc-arm-none-eabi-4_9-2015q3/bin/../lib/gcc/arm-none-eabi/4.9.3/../../../../arm-none-eabi/lib/armv7e-m/fpu/libc_nano.a(lib_a-exit.o) (_exit)

Allocating common symbols
Common symbol       size              file

errno               0x4               /home/aselsan/Desktop/IMX7/toolchain/gcc-arm-none-eabi-4_9-2015q3/bin/../lib/gcc/arm-none-eabi/4.9.3/../../../../arm-none-eabi/lib/armv7e-m/fpu/libc_nano.a(lib_a-reent.o)

Discarded input sections

 .text          0x00000000        0x0 /home/aselsan/Desktop/IMX7/toolchain/gcc-arm-none-eabi-4_9-2015q3/bin/../lib/gcc/arm-none-eabi/4.9.3/armv7e-m/fpu/crti.o
 .data          0x00000000        0x0 /home/aselsan/Desktop/IMX7/toolchain/gcc-arm-none-eabi-4_9-2015q3/bin/../lib/gcc/arm-none-eabi/4.9.3/armv7e-m/fpu/crti.o
 .bss           0x00000000        0x0 /home/aselsan/Desktop/IMX7/toolchain/gcc-arm-none-eabi-4_9-2015q3/bin/../lib/gcc/arm-none-eabi/4.9.3/armv7e-m/fpu/crti.o
 .data          0x00000000        0x4 /home/aselsan/Desktop/IMX7/toolchain/gcc-arm-none-eabi-4_9-2015q3/bin/../lib/gcc/arm-none-eabi/4.9.3/armv7e-m/fpu/crtbegin.o
 .data          0x00000000        0x0 /home/aselsan/Desktop/IMX7/toolchain/gcc-arm-none-eabi-4_9-2015q3/bin/../lib/gcc/arm-none-eabi/4.9.3/../../../../arm-none-eabi/lib/armv7e-m/fpu/crt0.o
 .bss           0x00000000        0x0 /home/aselsan/Desktop/IMX7/toolchain/gcc-arm-none-eabi-4_9-2015q3/bin/../lib/gcc/arm-none-eabi/4.9.3/../../../../arm-none-eabi/lib/armv7e-m/fpu/crt0.o
 .ARM.extab     0x00000000        0x0 /home/aselsan/Desktop/IMX7/toolchain/gcc-arm-none-eabi-4_9-2015q3/bin/../lib/gcc/arm-none-eabi/4.9.3/../../../../arm-none-eabi/lib/armv7e-m/fpu/crt0.o
 .text          0x00000000        0x0 CMakeFiles/str_echo_freertos.dir/home/aselsan/Desktop/GPT_BACKUP/freertos-colibri-imx7/platform/drivers/src/sema4.c.obj
 .data          0x00000000        0x0 CMakeFiles/str_echo_freertos.dir/home/aselsan/Desktop/GPT_BACKUP/freertos-colibri-imx7/platform/drivers/src/sema4.c.obj
 .bss           0x00000000        0x0 CMakeFiles/str_echo_freertos.dir/home/aselsan/Desktop/GPT_BACKUP/freertos-colibri-imx7/platform/drivers/src/sema4.c.obj
 .text.SEMA4_TryLock
                0x00000000       0x30 CMakeFiles/str_echo_freertos.dir/home/aselsan/Desktop/GPT_BACKUP/freertos-colibri-imx7/platform/drivers/src/sema4.c.obj
 .text.SEMA4_Lock
                0x00000000       0x38 CMakeFiles/str_echo_freertos.dir/home/aselsan/Desktop/GPT_BACKUP/freertos-colibri-imx7/platform/drivers/src/sema4.c.obj
 .text.SEMA4_Unlock
                0x00000000       0x24 CMakeFiles/str_echo_freertos.dir/home/aselsan/Desktop/GPT_BACKUP/freertos-colibri-imx7/platform/drivers/src/sema4.c.obj
 .text.SEMA4_GetLockProcessor
                0x00000000       0x30 CMakeFiles/str_echo_freertos.dir/home/aselsan/Desktop/GPT_BACKUP/freertos-colibri-imx7/platform/drivers/src/sema4.c.obj
 .text.SEMA4_ResetGate
                0x00000000       0x50 CMakeFiles/str_echo_freertos.dir/home/aselsan/Desktop/GPT_BACKUP/freertos-colibri-imx7/platform/drivers/src/sema4.c.obj
 .text.SEMA4_ResetAllGates
                0x00000000       0x34 CMakeFiles/str_echo_freertos.dir/home/aselsan/Desktop/GPT_BACKUP/freertos-colibri-imx7/platform/drivers/src/sema4.c.obj
 .text.SEMA4_ResetNotification
                0x00000000       0x50 CMakeFiles/str_echo_freertos.dir/home/aselsan/Desktop/GPT_BACKUP/freertos-colibri-imx7/platform/drivers/src/sema4.c.obj
 .text.SEMA4_ResetAllNotifications
                0x00000000       0x34 CMakeFiles/str_echo_freertos.dir/home/aselsan/Desktop/GPT_BACKUP/freertos-colibri-imx7/platform/drivers/src/sema4.c.obj
 .text.SEMA4_SetIntCmd
                0x00000000       0x20 CMakeFiles/str_echo_freertos.dir/home/aselsan/Desktop/GPT_BACKUP/freertos-colibri-imx7/platform/drivers/src/sema4.c.obj
 .rodata.__func__.7826
                0x00000000        0xe CMakeFiles/str_echo_freertos.dir/home/aselsan/Desktop/GPT_BACKUP/freertos-colibri-imx7/platform/drivers/src/sema4.c.obj
 .rodata.__func__.7832
                0x00000000        0xb CMakeFiles/str_echo_freertos.dir/home/aselsan/Desktop/GPT_BACKUP/freertos-colibri-imx7/platform/drivers/src/sema4.c.obj
 .rodata.__func__.7864
                0x00000000       0x18 CMakeFiles/str_echo_freertos.dir/home/aselsan/Desktop/GPT_BACKUP/freertos-colibri-imx7/platform/drivers/src/sema4.c.obj
 .rodata.__func__.7843
                0x00000000        0xd CMakeFiles/str_echo_freertos.dir/home/aselsan/Desktop/GPT_BACKUP/freertos-colibri-imx7/platform/drivers/src/sema4.c.obj
 .rodata.str1.4
                0x00000000       0x9b CMakeFiles/str_echo_freertos.dir/home/aselsan/Desktop/GPT_BACKUP/freertos-colibri-imx7/platform/drivers/src/sema4.c.obj
 .rodata.__func__.7850
                0x00000000       0x17 CMakeFiles/str_echo_freertos.dir/home/aselsan/Desktop/GPT_BACKUP/freertos-colibri-imx7/platform/drivers/src/sema4.c.obj
 .rodata.__func__.7855
                0x00000000       0x10 CMakeFiles/str_echo_freertos.dir/home/aselsan/Desktop/GPT_BACKUP/freertos-colibri-imx7/platform/drivers/src/sema4.c.obj
 .rodata.__func__.7859
                0x00000000       0x14 CMakeFiles/str_echo_freertos.dir/home/aselsan/Desktop/GPT_BACKUP/freertos-colibri-imx7/platform/drivers/src/sema4.c.obj
 .rodata.__func__.7868
                0x00000000       0x1c CMakeFiles/str_echo_freertos.dir/home/aselsan/Desktop/GPT_BACKUP/freertos-colibri-imx7/platform/drivers/src/sema4.c.obj
 .debug_info    0x00000000      0x809 CMakeFiles/str_echo_freertos.dir/home/aselsan/Desktop/GPT_BACKUP/freertos-colibri-imx7/platform/drivers/src/sema4.c.obj
 .debug_abbrev  0x00000000      0x198 CMakeFiles/str_echo_freertos.dir/home/aselsan/Desktop/GPT_BACKUP/freertos-colibri-imx7/platform/drivers/src/sema4.c.obj
 .debug_loc     0x00000000      0x3a7 CMakeFiles/str_echo_freertos.dir/home/aselsan/Desktop/GPT_BACKUP/freertos-colibri-imx7/platform/drivers/src/sema4.c.obj
 .debug_aranges
                0x00000000       0x60 CMakeFiles/str_echo_freertos.dir/home/aselsan/Desktop/GPT_BACKUP/freertos-colibri-imx7/platform/drivers/src/sema4.c.obj
 .debug_ranges  0x00000000       0x50 CMakeFiles/str_echo_freertos.dir/home/aselsan/Desktop/GPT_BACKUP/freertos-colibri-imx7/platform/drivers/src/sema4.c.obj
 .debug_line    0x00000000      0x468 CMakeFiles/str_echo_freertos.dir/home/aselsan/Desktop/GPT_BACKUP/freertos-colibri-imx7/platform/drivers/src/sema4.c.obj
 .debug_str     0x00000000      0x8f9 CMakeFiles/str_echo_freertos.dir/home/aselsan/Desktop/GPT_BACKUP/freertos-colibri-imx7/platform/drivers/src/sema4.c.obj
 .comment       0x00000000       0x71 CMakeFiles/str_echo_freertos.dir/home/aselsan/Desktop/GPT_BACKUP/freertos-colibri-imx7/platform/drivers/src/sema4.c.obj
 .debug_frame   0x00000000       0xe4 CMakeFiles/str_echo_freertos.dir/home/aselsan/Desktop/GPT_BACKUP/freertos-colibri-imx7/platform/drivers/src/sema4.c.obj
 .ARM.attributes
                0x00000000       0x39 CMakeFiles/str_echo_freertos.dir/home/aselsan/Desktop/GPT_BACKUP/freertos-colibri-imx7/platform/drivers/src/sema4.c.obj
 .text          0x00000000        0x0 CMakeFiles/str_echo_freertos.dir/home/aselsan/Desktop/GPT_BACKUP/freertos-colibri-imx7/middleware/multicore/open-amp/common/hil/hil.c.obj
 .data          0x00000000        0x0 CMakeFiles/str_echo_freertos.dir/home/aselsan/Desktop/GPT_BACKUP/freertos-colibri-imx7/middleware/multicore/open-amp/common/hil/hil.c.obj
 .bss           0x00000000        0x0 CMakeFiles/str_echo_freertos.dir/home/aselsan/Desktop/GPT_BACKUP/freertos-colibri-imx7/middleware/multicore/open-amp/common/hil/hil.c.obj
 .text.hil_get_cpuforfw
                0x00000000        0x8 CMakeFiles/str_echo_freertos.dir/home/aselsan/Desktop/GPT_BACKUP/freertos-colibri-imx7/middleware/multicore/open-amp/common/hil/hil.c.obj
 .text.hil_delete_proc
                0x00000000       0x38 CMakeFiles/str_echo_freertos.dir/home/aselsan/Desktop/GPT_BACKUP/freertos-colibri-imx7/middleware/multicore/open-amp/common/hil/hil.c.obj
 .text.hil_get_proc
                0x00000000       0x28 CMakeFiles/str_echo_freertos.dir/home/aselsan/Desktop/GPT_BACKUP/freertos-colibri-imx7/middleware/multicore/open-amp/common/hil/hil.c.obj
 .text.hil_get_vdev_info
                0x00000000        0x4 CMakeFiles/str_echo_freertos.dir/home/aselsan/Desktop/GPT_BACKUP/freertos-colibri-imx7/middleware/multicore/open-amp/common/hil/hil.c.obj
 .text.hil_boot_cpu
                0x00000000       0x14 CMakeFiles/str_echo_freertos.dir/home/aselsan/Desktop/GPT_BACKUP/freertos-colibri-imx7/middleware/multicore/open-amp/common/hil/hil.c.obj
 .text.hil_shutdown_cpu
                0x00000000       0x10 CMakeFiles/str_echo_freertos.dir/home/aselsan/Desktop/GPT_BACKUP/freertos-colibri-imx7/middleware/multicore/open-amp/common/hil/hil.c.obj
 .text.hil_get_firmware
                0x00000000        0x8 CMakeFiles/str_echo_freertos.dir/home/aselsan/Desktop/GPT_BACKUP/freertos-colibri-imx7/middleware/multicore/open-amp/common/hil/hil.c.obj
 .text          0x00000000        0x0 CMakeFiles/str_echo_freertos.dir/home/aselsan/Desktop/GPT_BACKUP/freertos-colibri-imx7/middleware/multicore/open-amp/common/llist/llist.c.obj
 .data          0x00000000        0x0 CMakeFiles/str_echo_freertos.dir/home/aselsan/Desktop/GPT_BACKUP/freertos-colibri-imx7/middleware/multicore/open-amp/common/llist/llist.c.obj
 .bss           0x00000000        0x0 CMakeFiles/str_echo_freertos.dir/home/aselsan/Desktop/GPT_BACKUP/freertos-colibri-imx7/middleware/multicore/open-amp/common/llist/llist.c.obj
 .text          0x00000000        0x0 CMakeFiles/str_echo_freertos.dir/home/aselsan/Desktop/GPT_BACKUP/freertos-colibri-imx7/middleware/multicore/open-amp/common/shm/sh_mem.c.obj
 .data          0x00000000        0x0 CMakeFiles/str_echo_freertos.dir/home/aselsan/Desktop/GPT_BACKUP/freertos-colibri-imx7/middleware/multicore/open-amp/common/shm/sh_mem.c.obj
 .bss           0x00000000        0x0 CMakeFiles/str_echo_freertos.dir/home/aselsan/Desktop/GPT_BACKUP/freertos-colibri-imx7/middleware/multicore/open-amp/common/shm/sh_mem.c.obj
 .text          0x00000000        0x0 CMakeFiles/str_echo_freertos.dir/home/aselsan/Desktop/GPT_BACKUP/freertos-colibri-imx7/middleware/multicore/open-amp/porting/config/config.c.obj
 .data          0x00000000        0x0 CMakeFiles/str_echo_freertos.dir/home/aselsan/Desktop/GPT_BACKUP/freertos-colibri-imx7/middleware/multicore/open-amp/porting/config/config.c.obj
 .bss           0x00000000        0x0 CMakeFiles/str_echo_freertos.dir/home/aselsan/Desktop/GPT_BACKUP/freertos-colibri-imx7/middleware/multicore/open-amp/porting/config/config.c.obj
 .text.config_get_firmware
                0x00000000        0x8 CMakeFiles/str_echo_freertos.dir/home/aselsan/Desktop/GPT_BACKUP/freertos-colibri-imx7/middleware/multicore/open-amp/porting/config/config.c.obj
 .debug_info    0x00000000       0xc9 CMakeFiles/str_echo_freertos.dir/home/aselsan/Desktop/GPT_BACKUP/freertos-colibri-imx7/middleware/multicore/open-amp/porting/config/config.c.obj
 .debug_abbrev  0x00000000       0x6d CMakeFiles/str_echo_freertos.dir/home/aselsan/Desktop/GPT_BACKUP/freertos-colibri-imx7/middleware/multicore/open-amp/porting/config/config.c.obj
 .debug_loc     0x00000000       0x21 CMakeFiles/str_echo_freertos.dir/home/aselsan/Desktop/GPT_BACKUP/freertos-colibri-imx7/middleware/multicore/open-amp/porting/config/config.c.obj
 .debug_aranges
                0x00000000       0x20 CMakeFiles/str_echo_freertos.dir/home/aselsan/Desktop/GPT_BACKUP/freertos-colibri-imx7/middleware/multicore/open-amp/porting/config/config.c.obj
 .debug_ranges  0x00000000       0x10 CMakeFiles/str_echo_freertos.dir/home/aselsan/Desktop/GPT_BACKUP/freertos-colibri-imx7/middleware/multicore/open-amp/porting/config/config.c.obj
 .debug_line    0x00000000       0x9d CMakeFiles/str_echo_freertos.dir/home/aselsan/Desktop/GPT_BACKUP/freertos-colibri-imx7/middleware/multicore/open-amp/porting/config/config.c.obj
 .debug_str     0x00000000      0x7a2 CMakeFiles/str_echo_freertos.dir/home/aselsan/Desktop/GPT_BACKUP/freertos-colibri-imx7/middleware/multicore/open-amp/porting/config/config.c.obj
 .comment       0x00000000       0x71 CMakeFiles/str_echo_freertos.dir/home/aselsan/Desktop/GPT_BACKUP/freertos-colibri-imx7/middleware/multicore/open-amp/porting/config/config.c.obj
 .debug_frame   0x00000000       0x20 CMakeFiles/str_echo_freertos.dir/home/aselsan/Desktop/GPT_BACKUP/freertos-colibri-imx7/middleware/multicore/open-amp/porting/config/config.c.obj
 .ARM.attributes
                0x00000000       0x39 CMakeFiles/str_echo_freertos.dir/home/aselsan/Desktop/GPT_BACKUP/freertos-colibri-imx7/middleware/multicore/open-amp/porting/config/config.c.obj
 .text          0x00000000        0x0 CMakeFiles/str_echo_freertos.dir/home/aselsan/Desktop/GPT_BACKUP/freertos-colibri-imx7/middleware/multicore/open-amp/porting/env/freertos/rpmsg_porting.c.obj
 .data          0x00000000        0x0 CMakeFiles/str_echo_freertos.dir/home/aselsan/Desktop/GPT_BACKUP/freertos-colibri-imx7/middleware/multicore/open-amp/porting/env/freertos/rpmsg_porting.c.obj
 .bss           0x00000000        0x0 CMakeFiles/str_echo_freertos.dir/home/aselsan/Desktop/GPT_BACKUP/freertos-colibri-imx7/middleware/multicore/open-amp/porting/env/freertos/rpmsg_porting.c.obj
 .text.env_strcmp
                0x00000000        0x8 CMakeFiles/str_echo_freertos.dir/home/aselsan/Desktop/GPT_BACKUP/freertos-colibri-imx7/middleware/multicore/open-amp/porting/env/freertos/rpmsg_porting.c.obj
 .text.env_disable_interrupts
                0x00000000        0x8 CMakeFiles/str_echo_freertos.dir/home/aselsan/Desktop/GPT_BACKUP/freertos-colibri-imx7/middleware/multicore/open-amp/porting/env/freertos/rpmsg_porting.c.obj
 .text.env_restore_interrupts
                0x00000000        0x8 CMakeFiles/str_echo_freertos.dir/home/aselsan/Desktop/GPT_BACKUP/freertos-colibri-imx7/middleware/multicore/open-amp/porting/env/freertos/rpmsg_porting.c.obj
 .text.env_update_isr
                0x00000000       0x38 CMakeFiles/str_echo_freertos.dir/home/aselsan/Desktop/GPT_BACKUP/freertos-colibri-imx7/middleware/multicore/open-amp/porting/env/freertos/rpmsg_porting.c.obj
 .text.env_disable_cache
                0x00000000        0xc CMakeFiles/str_echo_freertos.dir/home/aselsan/Desktop/GPT_BACKUP/freertos-colibri-imx7/middleware/multicore/open-amp/porting/env/freertos/rpmsg_porting.c.obj
 .text.env_get_timestamp
                0x00000000       0x18 CMakeFiles/str_echo_freertos.dir/home/aselsan/Desktop/GPT_BACKUP/freertos-colibri-imx7/middleware/multicore/open-amp/porting/env/freertos/rpmsg_porting.c.obj
 .text.env_delete_queue
                0x00000000        0x8 CMakeFiles/str_echo_freertos.dir/home/aselsan/Desktop/GPT_BACKUP/freertos-colibri-imx7/middleware/multicore/open-amp/porting/env/freertos/rpmsg_porting.c.obj
 .rodata.__func__.5859
                0x00000000        0xf CMakeFiles/str_echo_freertos.dir/home/aselsan/Desktop/GPT_BACKUP/freertos-colibri-imx7/middleware/multicore/open-amp/porting/env/freertos/rpmsg_porting.c.obj
 .text          0x00000000        0x0 CMakeFiles/str_echo_freertos.dir/home/aselsan/Desktop/GPT_BACKUP/freertos-colibri-imx7/middleware/multicore/open-amp/porting/imx7d_m4/platform.c.obj
 .data          0x00000000        0x0 CMakeFiles/str_echo_freertos.dir/home/aselsan/Desktop/GPT_BACKUP/freertos-colibri-imx7/middleware/multicore/open-amp/porting/imx7d_m4/platform.c.obj
 .bss           0x00000000        0x0 CMakeFiles/str_echo_freertos.dir/home/aselsan/Desktop/GPT_BACKUP/freertos-colibri-imx7/middleware/multicore/open-amp/porting/imx7d_m4/platform.c.obj
 .text.platform_time_delay
                0x00000000       0x2c CMakeFiles/str_echo_freertos.dir/home/aselsan/Desktop/GPT_BACKUP/freertos-colibri-imx7/middleware/multicore/open-amp/porting/imx7d_m4/platform.c.obj
 .text.platform_cache_all_flush_invalidate
                0x00000000        0x4 CMakeFiles/str_echo_freertos.dir/home/aselsan/Desktop/GPT_BACKUP/freertos-colibri-imx7/middleware/multicore/open-amp/porting/imx7d_m4/platform.c.obj
 .text.platform_cache_disable
                0x00000000        0x4 CMakeFiles/str_echo_freertos.dir/home/aselsan/Desktop/GPT_BACKUP/freertos-colibri-imx7/middleware/multicore/open-amp/porting/imx7d_m4/platform.c.obj
 .text          0x00000000        0x0 CMakeFiles/str_echo_freertos.dir/home/aselsan/Desktop/GPT_BACKUP/freertos-colibri-imx7/middleware/multicore/open-amp/porting/imx7d_m4/platform_info.c.obj
 .data          0x00000000        0x0 CMakeFiles/str_echo_freertos.dir/home/aselsan/Desktop/GPT_BACKUP/freertos-colibri-imx7/middleware/multicore/open-amp/porting/imx7d_m4/platform_info.c.obj
 .bss           0x00000000        0x0 CMakeFiles/str_echo_freertos.dir/home/aselsan/Desktop/GPT_BACKUP/freertos-colibri-imx7/middleware/multicore/open-amp/porting/imx7d_m4/platform_info.c.obj
 .text.platform_get_processor_for_fw
                0x00000000        0x4 CMakeFiles/str_echo_freertos.dir/home/aselsan/Desktop/GPT_BACKUP/freertos-colibri-imx7/middleware/multicore/open-amp/porting/imx7d_m4/platform_info.c.obj
 .text          0x00000000        0x0 CMakeFiles/str_echo_freertos.dir/home/aselsan/Desktop/GPT_BACKUP/freertos-colibri-imx7/middleware/multicore/open-amp/rpmsg/remote_device.c.obj
 .data          0x00000000        0x0 CMakeFiles/str_echo_freertos.dir/home/aselsan/Desktop/GPT_BACKUP/freertos-colibri-imx7/middleware/multicore/open-amp/rpmsg/remote_device.c.obj
 .bss           0x00000000        0x0 CMakeFiles/str_echo_freertos.dir/home/aselsan/Desktop/GPT_BACKUP/freertos-colibri-imx7/middleware/multicore/open-amp/rpmsg/remote_device.c.obj
 .text.rpmsg_rdev_get_chnl_from_addr
                0x00000000       0x38 CMakeFiles/str_echo_freertos.dir/home/aselsan/Desktop/GPT_BACKUP/freertos-colibri-imx7/middleware/multicore/open-amp/rpmsg/remote_device.c.obj
 .text          0x00000000        0x0 CMakeFiles/str_echo_freertos.dir/home/aselsan/Desktop/GPT_BACKUP/freertos-colibri-imx7/middleware/multicore/open-amp/rpmsg/rpmsg.c.obj
 .data          0x00000000        0x0 CMakeFiles/str_echo_freertos.dir/home/aselsan/Desktop/GPT_BACKUP/freertos-colibri-imx7/middleware/multicore/open-amp/rpmsg/rpmsg.c.obj
 .bss           0x00000000        0x0 CMakeFiles/str_echo_freertos.dir/home/aselsan/Desktop/GPT_BACKUP/freertos-colibri-imx7/middleware/multicore/open-amp/rpmsg/rpmsg.c.obj
 .text.rpmsg_get_buffer_size
                0x00000000       0x4c CMakeFiles/str_echo_freertos.dir/home/aselsan/Desktop/GPT_BACKUP/freertos-colibri-imx7/middleware/multicore/open-amp/rpmsg/rpmsg.c.obj
 .text.rpmsg_create_channel
                0x00000000       0x58 CMakeFiles/str_echo_freertos.dir/home/aselsan/Desktop/GPT_BACKUP/freertos-colibri-imx7/middleware/multicore/open-amp/rpmsg/rpmsg.c.obj
 .text.rpmsg_delete_channel
                0x00000000       0x30 CMakeFiles/str_echo_freertos.dir/home/aselsan/Desktop/GPT_BACKUP/freertos-colibri-imx7/middleware/multicore/open-amp/rpmsg/rpmsg.c.obj
 .text          0x00000000        0x0 CMakeFiles/str_echo_freertos.dir/home/aselsan/Desktop/GPT_BACKUP/freertos-colibri-imx7/middleware/multicore/open-amp/rpmsg/rpmsg_core.c.obj
 .data          0x00000000        0x0 CMakeFiles/str_echo_freertos.dir/home/aselsan/Desktop/GPT_BACKUP/freertos-colibri-imx7/middleware/multicore/open-amp/rpmsg/rpmsg_core.c.obj
 .bss           0x00000000        0x0 CMakeFiles/str_echo_freertos.dir/home/aselsan/Desktop/GPT_BACKUP/freertos-colibri-imx7/middleware/multicore/open-amp/rpmsg/rpmsg_core.c.obj
 .text          0x00000000        0x0 CMakeFiles/str_echo_freertos.dir/home/aselsan/Desktop/GPT_BACKUP/freertos-colibri-imx7/middleware/multicore/open-amp/rpmsg/rpmsg_ext.c.obj
 .data          0x00000000        0x0 CMakeFiles/str_echo_freertos.dir/home/aselsan/Desktop/GPT_BACKUP/freertos-colibri-imx7/middleware/multicore/open-amp/rpmsg/rpmsg_ext.c.obj
 .bss           0x00000000        0x0 CMakeFiles/str_echo_freertos.dir/home/aselsan/Desktop/GPT_BACKUP/freertos-colibri-imx7/middleware/multicore/open-amp/rpmsg/rpmsg_ext.c.obj
 .text          0x00000000        0x0 CMakeFiles/str_echo_freertos.dir/home/aselsan/Desktop/GPT_BACKUP/freertos-colibri-imx7/middleware/multicore/open-amp/rpmsg/rpmsg_rtos.c.obj
 .data          0x00000000        0x0 CMakeFiles/str_echo_freertos.dir/home/aselsan/Desktop/GPT_BACKUP/freertos-colibri-imx7/middleware/multicore/open-amp/rpmsg/rpmsg_rtos.c.obj
 .bss           0x00000000        0x0 CMakeFiles/str_echo_freertos.dir/home/aselsan/Desktop/GPT_BACKUP/freertos-colibri-imx7/middleware/multicore/open-amp/rpmsg/rpmsg_rtos.c.obj
 .text.rpmsg_rtos_deinit
                0x00000000       0x38 CMakeFiles/str_echo_freertos.dir/home/aselsan/Desktop/GPT_BACKUP/freertos-colibri-imx7/middleware/multicore/open-amp/rpmsg/rpmsg_rtos.c.obj
 .text.rpmsg_rtos_create_ept
                0x00000000       0x50 CMakeFiles/str_echo_freertos.dir/home/aselsan/Desktop/GPT_BACKUP/freertos-colibri-imx7/middleware/multicore/open-amp/rpmsg/rpmsg_rtos.c.obj
 .text.rpmsg_rtos_destroy_ept
                0x00000000       0x10 CMakeFiles/str_echo_freertos.dir/home/aselsan/Desktop/GPT_BACKUP/freertos-colibri-imx7/middleware/multicore/open-amp/rpmsg/rpmsg_rtos.c.obj
 .text.rpmsg_rtos_recv
                0x00000000       0x80 CMakeFiles/str_echo_freertos.dir/home/aselsan/Desktop/GPT_BACKUP/freertos-colibri-imx7/middleware/multicore/open-amp/rpmsg/rpmsg_rtos.c.obj
 .text.rpmsg_rtos_send
                0x00000000       0x40 CMakeFiles/str_echo_freertos.dir/home/aselsan/Desktop/GPT_BACKUP/freertos-colibri-imx7/middleware/multicore/open-amp/rpmsg/rpmsg_rtos.c.obj
 .rodata.__func__.5985
                0x00000000       0x12 CMakeFiles/str_echo_freertos.dir/home/aselsan/Desktop/GPT_BACKUP/freertos-colibri-imx7/middleware/multicore/open-amp/rpmsg/rpmsg_rtos.c.obj
 .text          0x00000000        0x0 CMakeFiles/str_echo_freertos.dir/home/aselsan/Desktop/GPT_BACKUP/freertos-colibri-imx7/middleware/multicore/open-amp/virtio/virtio.c.obj
 .data          0x00000000        0x0 CMakeFiles/str_echo_freertos.dir/home/aselsan/Desktop/GPT_BACKUP/freertos-colibri-imx7/middleware/multicore/open-amp/virtio/virtio.c.obj
 .bss           0x00000000        0x0 CMakeFiles/str_echo_freertos.dir/home/aselsan/Desktop/GPT_BACKUP/freertos-colibri-imx7/middleware/multicore/open-amp/virtio/virtio.c.obj
 .text.virtio_dev_name
                0x00000000       0x1c CMakeFiles/str_echo_freertos.dir/home/aselsan/Desktop/GPT_BACKUP/freertos-colibri-imx7/middleware/multicore/open-amp/virtio/virtio.c.obj
 .text.virtio_describe
                0x00000000        0x4 CMakeFiles/str_echo_freertos.dir/home/aselsan/Desktop/GPT_BACKUP/freertos-colibri-imx7/middleware/multicore/open-amp/virtio/virtio.c.obj
 .rodata.str1.4
                0x00000000       0x49 CMakeFiles/str_echo_freertos.dir/home/aselsan/Desktop/GPT_BACKUP/freertos-colibri-imx7/middleware/multicore/open-amp/virtio/virtio.c.obj
 .data.virtio_ident_table
                0x00000000       0x48 CMakeFiles/str_echo_freertos.dir/home/aselsan/Desktop/GPT_BACKUP/freertos-colibri-imx7/middleware/multicore/open-amp/virtio/virtio.c.obj
 .debug_info    0x00000000      0x67f CMakeFiles/str_echo_freertos.dir/home/aselsan/Desktop/GPT_BACKUP/freertos-colibri-imx7/middleware/multicore/open-amp/virtio/virtio.c.obj
 .debug_abbrev  0x00000000      0x136 CMakeFiles/str_echo_freertos.dir/home/aselsan/Desktop/GPT_BACKUP/freertos-colibri-imx7/middleware/multicore/open-amp/virtio/virtio.c.obj
 .debug_loc     0x00000000       0x44 CMakeFiles/str_echo_freertos.dir/home/aselsan/Desktop/GPT_BACKUP/freertos-colibri-imx7/middleware/multicore/open-amp/virtio/virtio.c.obj
 .debug_aranges
                0x00000000       0x28 CMakeFiles/str_echo_freertos.dir/home/aselsan/Desktop/GPT_BACKUP/freertos-colibri-imx7/middleware/multicore/open-amp/virtio/virtio.c.obj
 .debug_ranges  0x00000000       0x18 CMakeFiles/str_echo_freertos.dir/home/aselsan/Desktop/GPT_BACKUP/freertos-colibri-imx7/middleware/multicore/open-amp/virtio/virtio.c.obj
 .debug_line    0x00000000      0x1c9 CMakeFiles/str_echo_freertos.dir/home/aselsan/Desktop/GPT_BACKUP/freertos-colibri-imx7/middleware/multicore/open-amp/virtio/virtio.c.obj
 .debug_str     0x00000000      0xabc CMakeFiles/str_echo_freertos.dir/home/aselsan/Desktop/GPT_BACKUP/freertos-colibri-imx7/middleware/multicore/open-amp/virtio/virtio.c.obj
 .comment       0x00000000       0x71 CMakeFiles/str_echo_freertos.dir/home/aselsan/Desktop/GPT_BACKUP/freertos-colibri-imx7/middleware/multicore/open-amp/virtio/virtio.c.obj
 .debug_frame   0x00000000       0x30 CMakeFiles/str_echo_freertos.dir/home/aselsan/Desktop/GPT_BACKUP/freertos-colibri-imx7/middleware/multicore/open-amp/virtio/virtio.c.obj
 .ARM.attributes
                0x00000000       0x39 CMakeFiles/str_echo_freertos.dir/home/aselsan/Desktop/GPT_BACKUP/freertos-colibri-imx7/middleware/multicore/open-amp/virtio/virtio.c.obj
 .text          0x00000000        0x0 CMakeFiles/str_echo_freertos.dir/home/aselsan/Desktop/GPT_BACKUP/freertos-colibri-imx7/middleware/multicore/open-amp/virtio/virtqueue.c.obj
 .data          0x00000000        0x0 CMakeFiles/str_echo_freertos.dir/home/aselsan/Desktop/GPT_BACKUP/freertos-colibri-imx7/middleware/multicore/open-amp/virtio/virtqueue.c.obj
 .bss           0x00000000        0x0 CMakeFiles/str_echo_freertos.dir/home/aselsan/Desktop/GPT_BACKUP/freertos-colibri-imx7/middleware/multicore/open-amp/virtio/virtqueue.c.obj
 .text.virtqueue_nused
                0x00000000       0x10 CMakeFiles/str_echo_freertos.dir/home/aselsan/Desktop/GPT_BACKUP/freertos-colibri-imx7/middleware/multicore/open-amp/virtio/virtqueue.c.obj
 .text.vq_ring_enable_interrupt
                0x00000000       0x40 CMakeFiles/str_echo_freertos.dir/home/aselsan/Desktop/GPT_BACKUP/freertos-colibri-imx7/middleware/multicore/open-amp/virtio/virtqueue.c.obj
 .text.virtqueue_add_single_buffer
                0x00000000       0x6c CMakeFiles/str_echo_freertos.dir/home/aselsan/Desktop/GPT_BACKUP/freertos-colibri-imx7/middleware/multicore/open-amp/virtio/virtqueue.c.obj
 .text.virtqueue_enable_cb
                0x00000000        0xc CMakeFiles/str_echo_freertos.dir/home/aselsan/Desktop/GPT_BACKUP/freertos-colibri-imx7/middleware/multicore/open-amp/virtio/virtqueue.c.obj
 .text.virtqueue_dump
                0x00000000        0x4 CMakeFiles/str_echo_freertos.dir/home/aselsan/Desktop/GPT_BACKUP/freertos-colibri-imx7/middleware/multicore/open-amp/virtio/virtqueue.c.obj
 .text.virtqueue_get_desc_size
                0x00000000       0x28 CMakeFiles/str_echo_freertos.dir/home/aselsan/Desktop/GPT_BACKUP/freertos-colibri-imx7/middleware/multicore/open-amp/virtio/virtqueue.c.obj
 .data          0x00000000        0x0 CMakeFiles/str_echo_freertos.dir/home/aselsan/Desktop/GPT_BACKUP/freertos-colibri-imx7/platform/devices/MCIMX7D/startup/gcc/startup_MCIMX7D_M4.S.obj
 .bss           0x00000000        0x0 CMakeFiles/str_echo_freertos.dir/home/aselsan/Desktop/GPT_BACKUP/freertos-colibri-imx7/platform/devices/MCIMX7D/startup/gcc/startup_MCIMX7D_M4.S.obj
 .text          0x00000000        0x0 CMakeFiles/str_echo_freertos.dir/home/aselsan/Desktop/GPT_BACKUP/freertos-colibri-imx7/platform/devices/MCIMX7D/startup/system_MCIMX7D_M4.c.obj
 .data          0x00000000        0x0 CMakeFiles/str_echo_freertos.dir/home/aselsan/Desktop/GPT_BACKUP/freertos-colibri-imx7/platform/devices/MCIMX7D/startup/system_MCIMX7D_M4.c.obj
 .bss           0x00000000        0x0 CMakeFiles/str_echo_freertos.dir/home/aselsan/Desktop/GPT_BACKUP/freertos-colibri-imx7/platform/devices/MCIMX7D/startup/system_MCIMX7D_M4.c.obj
 .text.SystemCoreClockUpdate
                0x00000000      0x3b8 CMakeFiles/str_echo_freertos.dir/home/aselsan/Desktop/GPT_BACKUP/freertos-colibri-imx7/platform/devices/MCIMX7D/startup/system_MCIMX7D_M4.c.obj
 .data.SystemCoreClock
                0x00000000        0x4 CMakeFiles/str_echo_freertos.dir/home/aselsan/Desktop/GPT_BACKUP/freertos-colibri-imx7/platform/devices/MCIMX7D/startup/system_MCIMX7D_M4.c.obj
 .text          0x00000000        0x0 CMakeFiles/str_echo_freertos.dir/home/aselsan/Desktop/GPT_BACKUP/freertos-colibri-imx7/platform/drivers/src/ccm_analog_imx7d.c.obj
 .data          0x00000000        0x0 CMakeFiles/str_echo_freertos.dir/home/aselsan/Desktop/GPT_BACKUP/freertos-colibri-imx7/platform/drivers/src/ccm_analog_imx7d.c.obj
 .bss           0x00000000        0x0 CMakeFiles/str_echo_freertos.dir/home/aselsan/Desktop/GPT_BACKUP/freertos-colibri-imx7/platform/drivers/src/ccm_analog_imx7d.c.obj
 .text.CCM_ANALOG_GetArmPllFreq
                0x00000000       0x28 CMakeFiles/str_echo_freertos.dir/home/aselsan/Desktop/GPT_BACKUP/freertos-colibri-imx7/platform/drivers/src/ccm_analog_imx7d.c.obj
 .text.CCM_ANALOG_GetDdrPllFreq
                0x00000000       0xac CMakeFiles/str_echo_freertos.dir/home/aselsan/Desktop/GPT_BACKUP/freertos-colibri-imx7/platform/drivers/src/ccm_analog_imx7d.c.obj
 .text.CCM_ANALOG_GetEnetPllFreq
                0x00000000       0x1c CMakeFiles/str_echo_freertos.dir/home/aselsan/Desktop/GPT_BACKUP/freertos-colibri-imx7/platform/drivers/src/ccm_analog_imx7d.c.obj
 .text.CCM_ANALOG_GetAudioPllFreq
                0x00000000       0xd8 CMakeFiles/str_echo_freertos.dir/home/aselsan/Desktop/GPT_BACKUP/freertos-colibri-imx7/platform/drivers/src/ccm_analog_imx7d.c.obj
 .text.CCM_ANALOG_GetVideoPllFreq
                0x00000000       0xd8 CMakeFiles/str_echo_freertos.dir/home/aselsan/Desktop/GPT_BACKUP/freertos-colibri-imx7/platform/drivers/src/ccm_analog_imx7d.c.obj
 .text.CCM_ANALOG_GetPfdFreq
                0x00000000       0x48 CMakeFiles/str_echo_freertos.dir/home/aselsan/Desktop/GPT_BACKUP/freertos-colibri-imx7/platform/drivers/src/ccm_analog_imx7d.c.obj
 .rodata.__func__.7933
                0x00000000       0x16 CMakeFiles/str_echo_freertos.dir/home/aselsan/Desktop/GPT_BACKUP/freertos-colibri-imx7/platform/drivers/src/ccm_analog_imx7d.c.obj
 .rodata.str1.4
                0x00000000       0x98 CMakeFiles/str_echo_freertos.dir/home/aselsan/Desktop/GPT_BACKUP/freertos-colibri-imx7/platform/drivers/src/ccm_analog_imx7d.c.obj
 .text          0x00000000        0x0 CMakeFiles/str_echo_freertos.dir/home/aselsan/Desktop/GPT_BACKUP/freertos-colibri-imx7/platform/drivers/src/ccm_imx7d.c.obj
 .data          0x00000000        0x0 CMakeFiles/str_echo_freertos.dir/home/aselsan/Desktop/GPT_BACKUP/freertos-colibri-imx7/platform/drivers/src/ccm_imx7d.c.obj
 .bss           0x00000000        0x0 CMakeFiles/str_echo_freertos.dir/home/aselsan/Desktop/GPT_BACKUP/freertos-colibri-imx7/platform/drivers/src/ccm_imx7d.c.obj
 .text.CCM_SetRootDivider
                0x00000000       0x50 CMakeFiles/str_echo_freertos.dir/home/aselsan/Desktop/GPT_BACKUP/freertos-colibri-imx7/platform/drivers/src/ccm_imx7d.c.obj
 .rodata.__func__.8045
                0x00000000       0x13 CMakeFiles/str_echo_freertos.dir/home/aselsan/Desktop/GPT_BACKUP/freertos-colibri-imx7/platform/drivers/src/ccm_imx7d.c.obj
 .text          0x00000000        0x0 CMakeFiles/str_echo_freertos.dir/home/aselsan/Desktop/GPT_BACKUP/freertos-colibri-imx7/platform/drivers/src/mu_imx.c.obj
 .data          0x00000000        0x0 CMakeFiles/str_echo_freertos.dir/home/aselsan/Desktop/GPT_BACKUP/freertos-colibri-imx7/platform/drivers/src/mu_imx.c.obj
 .bss           0x00000000        0x0 CMakeFiles/str_echo_freertos.dir/home/aselsan/Desktop/GPT_BACKUP/freertos-colibri-imx7/platform/drivers/src/mu_imx.c.obj
 .text.MU_TrySendMsg
                0x00000000       0x38 CMakeFiles/str_echo_freertos.dir/home/aselsan/Desktop/GPT_BACKUP/freertos-colibri-imx7/platform/drivers/src/mu_imx.c.obj
 .text.MU_ReceiveMsg
                0x00000000       0x34 CMakeFiles/str_echo_freertos.dir/home/aselsan/Desktop/GPT_BACKUP/freertos-colibri-imx7/platform/drivers/src/mu_imx.c.obj
 .text.MU_TriggerGeneralInt
                0x00000000       0x20 CMakeFiles/str_echo_freertos.dir/home/aselsan/Desktop/GPT_BACKUP/freertos-colibri-imx7/platform/drivers/src/mu_imx.c.obj
 .text.MU_TrySetFlags
                0x00000000       0x20 CMakeFiles/str_echo_freertos.dir/home/aselsan/Desktop/GPT_BACKUP/freertos-colibri-imx7/platform/drivers/src/mu_imx.c.obj
 .text.MU_SetFlags
                0x00000000       0x18 CMakeFiles/str_echo_freertos.dir/home/aselsan/Desktop/GPT_BACKUP/freertos-colibri-imx7/platform/drivers/src/mu_imx.c.obj
 .rodata.__func__.7877
                0x00000000        0xe CMakeFiles/str_echo_freertos.dir/home/aselsan/Desktop/GPT_BACKUP/freertos-colibri-imx7/platform/drivers/src/mu_imx.c.obj
 .rodata.__func__.7899
                0x00000000        0xe CMakeFiles/str_echo_freertos.dir/home/aselsan/Desktop/GPT_BACKUP/freertos-colibri-imx7/platform/drivers/src/mu_imx.c.obj
 .text          0x00000000        0x0 CMakeFiles/str_echo_freertos.dir/home/aselsan/Desktop/GPT_BACKUP/freertos-colibri-imx7/platform/drivers/src/rdc.c.obj
 .data          0x00000000        0x0 CMakeFiles/str_echo_freertos.dir/home/aselsan/Desktop/GPT_BACKUP/freertos-colibri-imx7/platform/drivers/src/rdc.c.obj
 .bss           0x00000000        0x0 CMakeFiles/str_echo_freertos.dir/home/aselsan/Desktop/GPT_BACKUP/freertos-colibri-imx7/platform/drivers/src/rdc.c.obj
 .text.RDC_SetMrAccess
                0x00000000       0x40 CMakeFiles/str_echo_freertos.dir/home/aselsan/Desktop/GPT_BACKUP/freertos-colibri-imx7/platform/drivers/src/rdc.c.obj
 .text.RDC_GetMrAccess
                0x00000000       0x30 CMakeFiles/str_echo_freertos.dir/home/aselsan/Desktop/GPT_BACKUP/freertos-colibri-imx7/platform/drivers/src/rdc.c.obj
 .text.RDC_GetViolationStatus
                0x00000000       0x20 CMakeFiles/str_echo_freertos.dir/home/aselsan/Desktop/GPT_BACKUP/freertos-colibri-imx7/platform/drivers/src/rdc.c.obj
 .debug_info    0x00000000      0x352 CMakeFiles/str_echo_freertos.dir/home/aselsan/Desktop/GPT_BACKUP/freertos-colibri-imx7/platform/drivers/src/rdc.c.obj
 .debug_abbrev  0x00000000      0x15c CMakeFiles/str_echo_freertos.dir/home/aselsan/Desktop/GPT_BACKUP/freertos-colibri-imx7/platform/drivers/src/rdc.c.obj
 .debug_loc     0x00000000      0x18f CMakeFiles/str_echo_freertos.dir/home/aselsan/Desktop/GPT_BACKUP/freertos-colibri-imx7/platform/drivers/src/rdc.c.obj
 .debug_aranges
                0x00000000       0x30 CMakeFiles/str_echo_freertos.dir/home/aselsan/Desktop/GPT_BACKUP/freertos-colibri-imx7/platform/drivers/src/rdc.c.obj
 .debug_ranges  0x00000000       0x20 CMakeFiles/str_echo_freertos.dir/home/aselsan/Desktop/GPT_BACKUP/freertos-colibri-imx7/platform/drivers/src/rdc.c.obj
 .debug_line    0x00000000      0x2a3 CMakeFiles/str_echo_freertos.dir/home/aselsan/Desktop/GPT_BACKUP/freertos-colibri-imx7/platform/drivers/src/rdc.c.obj
 .debug_str     0x00000000      0x7e3 CMakeFiles/str_echo_freertos.dir/home/aselsan/Desktop/GPT_BACKUP/freertos-colibri-imx7/platform/drivers/src/rdc.c.obj
 .comment       0x00000000       0x71 CMakeFiles/str_echo_freertos.dir/home/aselsan/Desktop/GPT_BACKUP/freertos-colibri-imx7/platform/drivers/src/rdc.c.obj
 .debug_frame   0x00000000       0x58 CMakeFiles/str_echo_freertos.dir/home/aselsan/Desktop/GPT_BACKUP/freertos-colibri-imx7/platform/drivers/src/rdc.c.obj
 .ARM.attributes
                0x00000000       0x39 CMakeFiles/str_echo_freertos.dir/home/aselsan/Desktop/GPT_BACKUP/freertos-colibri-imx7/platform/drivers/src/rdc.c.obj
 .text          0x00000000        0x0 CMakeFiles/str_echo_freertos.dir/home/aselsan/Desktop/GPT_BACKUP/freertos-colibri-imx7/platform/drivers/src/rdc_semaphore.c.obj
 .data          0x00000000        0x0 CMakeFiles/str_echo_freertos.dir/home/aselsan/Desktop/GPT_BACKUP/freertos-colibri-imx7/platform/drivers/src/rdc_semaphore.c.obj
 .bss           0x00000000        0x0 CMakeFiles/str_echo_freertos.dir/home/aselsan/Desktop/GPT_BACKUP/freertos-colibri-imx7/platform/drivers/src/rdc_semaphore.c.obj
 .text.RDC_SEMAPHORE_GetGate
                0x00000000       0x1c CMakeFiles/str_echo_freertos.dir/home/aselsan/Desktop/GPT_BACKUP/freertos-colibri-imx7/platform/drivers/src/rdc_semaphore.c.obj
 .text.RDC_SEMAPHORE_TryLock
                0x00000000       0x2c CMakeFiles/str_echo_freertos.dir/home/aselsan/Desktop/GPT_BACKUP/freertos-colibri-imx7/platform/drivers/src/rdc_semaphore.c.obj
 .text.RDC_SEMAPHORE_Lock
                0x00000000       0x30 CMakeFiles/str_echo_freertos.dir/home/aselsan/Desktop/GPT_BACKUP/freertos-colibri-imx7/platform/drivers/src/rdc_semaphore.c.obj
 .text.RDC_SEMAPHORE_Unlock
                0x00000000       0x1c CMakeFiles/str_echo_freertos.dir/home/aselsan/Desktop/GPT_BACKUP/freertos-colibri-imx7/platform/drivers/src/rdc_semaphore.c.obj
 .text.RDC_SEMAPHORE_GetLockDomainID
                0x00000000       0x20 CMakeFiles/str_echo_freertos.dir/home/aselsan/Desktop/GPT_BACKUP/freertos-colibri-imx7/platform/drivers/src/rdc_semaphore.c.obj
 .text.RDC_SEMAPHORE_GetLockMaster
                0x00000000       0x28 CMakeFiles/str_echo_freertos.dir/home/aselsan/Desktop/GPT_BACKUP/freertos-colibri-imx7/platform/drivers/src/rdc_semaphore.c.obj
 .text.RDC_SEMAPHORE_Reset
                0x00000000       0x50 CMakeFiles/str_echo_freertos.dir/home/aselsan/Desktop/GPT_BACKUP/freertos-colibri-imx7/platform/drivers/src/rdc_semaphore.c.obj
 .text.RDC_SEMAPHORE_ResetAll
                0x00000000       0x34 CMakeFiles/str_echo_freertos.dir/home/aselsan/Desktop/GPT_BACKUP/freertos-colibri-imx7/platform/drivers/src/rdc_semaphore.c.obj
 .rodata.__func__.7808
                0x00000000       0x14 CMakeFiles/str_echo_freertos.dir/home/aselsan/Desktop/GPT_BACKUP/freertos-colibri-imx7/platform/drivers/src/rdc_semaphore.c.obj
 .rodata.str1.4
                0x00000000       0xd5 CMakeFiles/str_echo_freertos.dir/home/aselsan/Desktop/GPT_BACKUP/freertos-colibri-imx7/platform/drivers/src/rdc_semaphore.c.obj
 .rodata.__func__.7812
                0x00000000       0x17 CMakeFiles/str_echo_freertos.dir/home/aselsan/Desktop/GPT_BACKUP/freertos-colibri-imx7/platform/drivers/src/rdc_semaphore.c.obj
 .debug_info    0x00000000      0x475 CMakeFiles/str_echo_freertos.dir/home/aselsan/Desktop/GPT_BACKUP/freertos-colibri-imx7/platform/drivers/src/rdc_semaphore.c.obj
 .debug_abbrev  0x00000000      0x19b CMakeFiles/str_echo_freertos.dir/home/aselsan/Desktop/GPT_BACKUP/freertos-colibri-imx7/platform/drivers/src/rdc_semaphore.c.obj
 .debug_loc     0x00000000      0x205 CMakeFiles/str_echo_freertos.dir/home/aselsan/Desktop/GPT_BACKUP/freertos-colibri-imx7/platform/drivers/src/rdc_semaphore.c.obj
 .debug_aranges
                0x00000000       0x58 CMakeFiles/str_echo_freertos.dir/home/aselsan/Desktop/GPT_BACKUP/freertos-colibri-imx7/platform/drivers/src/rdc_semaphore.c.obj
 .debug_ranges  0x00000000       0x48 CMakeFiles/str_echo_freertos.dir/home/aselsan/Desktop/GPT_BACKUP/freertos-colibri-imx7/platform/drivers/src/rdc_semaphore.c.obj
 .debug_line    0x00000000      0x438 CMakeFiles/str_echo_freertos.dir/home/aselsan/Desktop/GPT_BACKUP/freertos-colibri-imx7/platform/drivers/src/rdc_semaphore.c.obj
 .debug_str     0x00000000      0x88c CMakeFiles/str_echo_freertos.dir/home/aselsan/Desktop/GPT_BACKUP/freertos-colibri-imx7/platform/drivers/src/rdc_semaphore.c.obj
 .comment       0x00000000       0x71 CMakeFiles/str_echo_freertos.dir/home/aselsan/Desktop/GPT_BACKUP/freertos-colibri-imx7/platform/drivers/src/rdc_semaphore.c.obj
 .debug_frame   0x00000000       0xe0 CMakeFiles/str_echo_freertos.dir/home/aselsan/Desktop/GPT_BACKUP/freertos-colibri-imx7/platform/drivers/src/rdc_semaphore.c.obj
 .ARM.attributes
                0x00000000       0x39 CMakeFiles/str_echo_freertos.dir/home/aselsan/Desktop/GPT_BACKUP/freertos-colibri-imx7/platform/drivers/src/rdc_semaphore.c.obj
 .text          0x00000000        0x0 CMakeFiles/str_echo_freertos.dir/home/aselsan/Desktop/GPT_BACKUP/freertos-colibri-imx7/platform/drivers/src/uart_imx.c.obj
 .data          0x00000000        0x0 CMakeFiles/str_echo_freertos.dir/home/aselsan/Desktop/GPT_BACKUP/freertos-colibri-imx7/platform/drivers/src/uart_imx.c.obj
 .bss           0x00000000        0x0 CMakeFiles/str_echo_freertos.dir/home/aselsan/Desktop/GPT_BACKUP/freertos-colibri-imx7/platform/drivers/src/uart_imx.c.obj
 .text.UART_SetInvertCmd
                0x00000000       0x70 CMakeFiles/str_echo_freertos.dir/home/aselsan/Desktop/GPT_BACKUP/freertos-colibri-imx7/platform/drivers/src/uart_imx.c.obj
 .text.UART_SetDozeMode
                0x00000000       0x20 CMakeFiles/str_echo_freertos.dir/home/aselsan/Desktop/GPT_BACKUP/freertos-colibri-imx7/platform/drivers/src/uart_imx.c.obj
 .text.UART_SetLowPowerMode
                0x00000000       0x20 CMakeFiles/str_echo_freertos.dir/home/aselsan/Desktop/GPT_BACKUP/freertos-colibri-imx7/platform/drivers/src/uart_imx.c.obj
 .text.UART_SetIntCmd
                0x00000000       0x24 CMakeFiles/str_echo_freertos.dir/home/aselsan/Desktop/GPT_BACKUP/freertos-colibri-imx7/platform/drivers/src/uart_imx.c.obj
 .text.UART_ClearStatusFlag
                0x00000000        0xc CMakeFiles/str_echo_freertos.dir/home/aselsan/Desktop/GPT_BACKUP/freertos-colibri-imx7/platform/drivers/src/uart_imx.c.obj
 .text.UART_SetDmaCmd
                0x00000000       0x24 CMakeFiles/str_echo_freertos.dir/home/aselsan/Desktop/GPT_BACKUP/freertos-colibri-imx7/platform/drivers/src/uart_imx.c.obj
 .text.UART_SetRtsFlowCtrlCmd
                0x00000000       0x20 CMakeFiles/str_echo_freertos.dir/home/aselsan/Desktop/GPT_BACKUP/freertos-colibri-imx7/platform/drivers/src/uart_imx.c.obj
 .text.UART_SetCtsFlowCtrlCmd
                0x00000000       0x20 CMakeFiles/str_echo_freertos.dir/home/aselsan/Desktop/GPT_BACKUP/freertos-colibri-imx7/platform/drivers/src/uart_imx.c.obj
 .text.UART_SetCtsPinLevel
                0x00000000       0x20 CMakeFiles/str_echo_freertos.dir/home/aselsan/Desktop/GPT_BACKUP/freertos-colibri-imx7/platform/drivers/src/uart_imx.c.obj
 .text.UART_SetDtrPinLevel
                0x00000000       0x20 CMakeFiles/str_echo_freertos.dir/home/aselsan/Desktop/GPT_BACKUP/freertos-colibri-imx7/platform/drivers/src/uart_imx.c.obj
 .text.UART_SetDcdPinLevel
                0x00000000       0x20 CMakeFiles/str_echo_freertos.dir/home/aselsan/Desktop/GPT_BACKUP/freertos-colibri-imx7/platform/drivers/src/uart_imx.c.obj
 .text.UART_SetRiPinLevel
                0x00000000       0x20 CMakeFiles/str_echo_freertos.dir/home/aselsan/Desktop/GPT_BACKUP/freertos-colibri-imx7/platform/drivers/src/uart_imx.c.obj
 .text.UART_Putchar9
                0x00000000       0x4c CMakeFiles/str_echo_freertos.dir/home/aselsan/Desktop/GPT_BACKUP/freertos-colibri-imx7/platform/drivers/src/uart_imx.c.obj
 .text.UART_Getchar9
                0x00000000       0x18 CMakeFiles/str_echo_freertos.dir/home/aselsan/Desktop/GPT_BACKUP/freertos-colibri-imx7/platform/drivers/src/uart_imx.c.obj
 .text.UART_SetMultidropMode
                0x00000000       0x20 CMakeFiles/str_echo_freertos.dir/home/aselsan/Desktop/GPT_BACKUP/freertos-colibri-imx7/platform/drivers/src/uart_imx.c.obj
 .text.UART_SetSlaveAddressDetectCmd
                0x00000000       0x20 CMakeFiles/str_echo_freertos.dir/home/aselsan/Desktop/GPT_BACKUP/freertos-colibri-imx7/platform/drivers/src/uart_imx.c.obj
 .text.UART_SetIrDACmd
                0x00000000       0x20 CMakeFiles/str_echo_freertos.dir/home/aselsan/Desktop/GPT_BACKUP/freertos-colibri-imx7/platform/drivers/src/uart_imx.c.obj
 .text.UART_SetIrDAVoteClock
                0x00000000       0x44 CMakeFiles/str_echo_freertos.dir/home/aselsan/Desktop/GPT_BACKUP/freertos-colibri-imx7/platform/drivers/src/uart_imx.c.obj
 .text.UART_SetAutoBaudRateCmd
                0x00000000       0x20 CMakeFiles/str_echo_freertos.dir/home/aselsan/Desktop/GPT_BACKUP/freertos-colibri-imx7/platform/drivers/src/uart_imx.c.obj
 .text.UART_SendBreakChar
                0x00000000       0x20 CMakeFiles/str_echo_freertos.dir/home/aselsan/Desktop/GPT_BACKUP/freertos-colibri-imx7/platform/drivers/src/uart_imx.c.obj
 .text.UART_SetEscapeDecectCmd
                0x00000000       0x20 CMakeFiles/str_echo_freertos.dir/home/aselsan/Desktop/GPT_BACKUP/freertos-colibri-imx7/platform/drivers/src/uart_imx.c.obj
 .rodata.__func__.8045
                0x00000000       0x12 CMakeFiles/str_echo_freertos.dir/home/aselsan/Desktop/GPT_BACKUP/freertos-colibri-imx7/platform/drivers/src/uart_imx.c.obj
 .rodata.__func__.8112
                0x00000000        0xe CMakeFiles/str_echo_freertos.dir/home/aselsan/Desktop/GPT_BACKUP/freertos-colibri-imx7/platform/drivers/src/uart_imx.c.obj
 .rodata.__func__.8133
                0x00000000       0x16 CMakeFiles/str_echo_freertos.dir/home/aselsan/Desktop/GPT_BACKUP/freertos-colibri-imx7/platform/drivers/src/uart_imx.c.obj
 .text          0x00000000        0x0 CMakeFiles/str_echo_freertos.dir/home/aselsan/Desktop/GPT_BACKUP/freertos-colibri-imx7/platform/drivers/src/wdog_imx.c.obj
 .data          0x00000000        0x0 CMakeFiles/str_echo_freertos.dir/home/aselsan/Desktop/GPT_BACKUP/freertos-colibri-imx7/platform/drivers/src/wdog_imx.c.obj
 .bss           0x00000000        0x0 CMakeFiles/str_echo_freertos.dir/home/aselsan/Desktop/GPT_BACKUP/freertos-colibri-imx7/platform/drivers/src/wdog_imx.c.obj
 .text.WDOG_Enable
                0x00000000       0x10 CMakeFiles/str_echo_freertos.dir/home/aselsan/Desktop/GPT_BACKUP/freertos-colibri-imx7/platform/drivers/src/wdog_imx.c.obj
 .text.WDOG_Reset
                0x00000000       0x18 CMakeFiles/str_echo_freertos.dir/home/aselsan/Desktop/GPT_BACKUP/freertos-colibri-imx7/platform/drivers/src/wdog_imx.c.obj
 .text.WDOG_Refresh
                0x00000000       0x10 CMakeFiles/str_echo_freertos.dir/home/aselsan/Desktop/GPT_BACKUP/freertos-colibri-imx7/platform/drivers/src/wdog_imx.c.obj
 .debug_info    0x00000000      0x1bd CMakeFiles/str_echo_freertos.dir/home/aselsan/Desktop/GPT_BACKUP/freertos-colibri-imx7/platform/drivers/src/wdog_imx.c.obj
 .debug_abbrev  0x00000000       0xfa CMakeFiles/str_echo_freertos.dir/home/aselsan/Desktop/GPT_BACKUP/freertos-colibri-imx7/platform/drivers/src/wdog_imx.c.obj
 .debug_loc     0x00000000       0x4a CMakeFiles/str_echo_freertos.dir/home/aselsan/Desktop/GPT_BACKUP/freertos-colibri-imx7/platform/drivers/src/wdog_imx.c.obj
 .debug_aranges
                0x00000000       0x30 CMakeFiles/str_echo_freertos.dir/home/aselsan/Desktop/GPT_BACKUP/freertos-colibri-imx7/platform/drivers/src/wdog_imx.c.obj
 .debug_ranges  0x00000000       0x20 CMakeFiles/str_echo_freertos.dir/home/aselsan/Desktop/GPT_BACKUP/freertos-colibri-imx7/platform/drivers/src/wdog_imx.c.obj
 .debug_line    0x00000000      0x291 CMakeFiles/str_echo_freertos.dir/home/aselsan/Desktop/GPT_BACKUP/freertos-colibri-imx7/platform/drivers/src/wdog_imx.c.obj
 .debug_str     0x00000000      0x752 CMakeFiles/str_echo_freertos.dir/home/aselsan/Desktop/GPT_BACKUP/freertos-colibri-imx7/platform/drivers/src/wdog_imx.c.obj
 .comment       0x00000000       0x71 CMakeFiles/str_echo_freertos.dir/home/aselsan/Desktop/GPT_BACKUP/freertos-colibri-imx7/platform/drivers/src/wdog_imx.c.obj
 .debug_frame   0x00000000       0x40 CMakeFiles/str_echo_freertos.dir/home/aselsan/Desktop/GPT_BACKUP/freertos-colibri-imx7/platform/drivers/src/wdog_imx.c.obj
 .ARM.attributes
                0x00000000       0x39 CMakeFiles/str_echo_freertos.dir/home/aselsan/Desktop/GPT_BACKUP/freertos-colibri-imx7/platform/drivers/src/wdog_imx.c.obj
 .text          0x00000000        0x0 CMakeFiles/str_echo_freertos.dir/home/aselsan/Desktop/GPT_BACKUP/freertos-colibri-imx7/platform/drivers/src/gpt.c.obj
 .data          0x00000000        0x0 CMakeFiles/str_echo_freertos.dir/home/aselsan/Desktop/GPT_BACKUP/freertos-colibri-imx7/platform/drivers/src/gpt.c.obj
 .bss           0x00000000        0x0 CMakeFiles/str_echo_freertos.dir/home/aselsan/Desktop/GPT_BACKUP/freertos-colibri-imx7/platform/drivers/src/gpt.c.obj
 .text          0x00000000        0x0 CMakeFiles/str_echo_freertos.dir/home/aselsan/Desktop/GPT_BACKUP/freertos-colibri-imx7/platform/drivers/src/gpio_imx.c.obj
 .data          0x00000000        0x0 CMakeFiles/str_echo_freertos.dir/home/aselsan/Desktop/GPT_BACKUP/freertos-colibri-imx7/platform/drivers/src/gpio_imx.c.obj
 .bss           0x00000000        0x0 CMakeFiles/str_echo_freertos.dir/home/aselsan/Desktop/GPT_BACKUP/freertos-colibri-imx7/platform/drivers/src/gpio_imx.c.obj
 .text.GPIO_SetPinIntMode
                0x00000000       0x3c CMakeFiles/str_echo_freertos.dir/home/aselsan/Desktop/GPT_BACKUP/freertos-colibri-imx7/platform/drivers/src/gpio_imx.c.obj
 .text.GPIO_SetIntEdgeSelect
                0x00000000       0x3c CMakeFiles/str_echo_freertos.dir/home/aselsan/Desktop/GPT_BACKUP/freertos-colibri-imx7/platform/drivers/src/gpio_imx.c.obj
 .rodata.__func__.7843
                0x00000000       0x13 CMakeFiles/str_echo_freertos.dir/home/aselsan/Desktop/GPT_BACKUP/freertos-colibri-imx7/platform/drivers/src/gpio_imx.c.obj
 .rodata.__func__.7849
                0x00000000       0x16 CMakeFiles/str_echo_freertos.dir/home/aselsan/Desktop/GPT_BACKUP/freertos-colibri-imx7/platform/drivers/src/gpio_imx.c.obj
 .text          0x00000000        0x0 CMakeFiles/str_echo_freertos.dir/home/aselsan/Desktop/GPT_BACKUP/freertos-colibri-imx7/platform/utilities/src/debug_console_imx.c.obj
 .data          0x00000000        0x0 CMakeFiles/str_echo_freertos.dir/home/aselsan/Desktop/GPT_BACKUP/freertos-colibri-imx7/platform/utilities/src/debug_console_imx.c.obj
 .bss           0x00000000        0x0 CMakeFiles/str_echo_freertos.dir/home/aselsan/Desktop/GPT_BACKUP/freertos-colibri-imx7/platform/utilities/src/debug_console_imx.c.obj
 .text.DbgConsole_DeInit
                0x00000000       0x2c CMakeFiles/str_echo_freertos.dir/home/aselsan/Desktop/GPT_BACKUP/freertos-colibri-imx7/platform/utilities/src/debug_console_imx.c.obj
 .text.debug_getchar
                0x00000000       0x2c CMakeFiles/str_echo_freertos.dir/home/aselsan/Desktop/GPT_BACKUP/freertos-colibri-imx7/platform/utilities/src/debug_console_imx.c.obj
 .text.debug_scanf
                0x00000000       0x64 CMakeFiles/str_echo_freertos.dir/home/aselsan/Desktop/GPT_BACKUP/freertos-colibri-imx7/platform/utilities/src/debug_console_imx.c.obj
 .text          0x00000000        0x0 CMakeFiles/str_echo_freertos.dir/home/aselsan/Desktop/GPT_BACKUP/freertos-colibri-imx7/platform/drivers/src/i2c_imx.c.obj
 .data          0x00000000        0x0 CMakeFiles/str_echo_freertos.dir/home/aselsan/Desktop/GPT_BACKUP/freertos-colibri-imx7/platform/drivers/src/i2c_imx.c.obj
 .bss           0x00000000        0x0 CMakeFiles/str_echo_freertos.dir/home/aselsan/Desktop/GPT_BACKUP/freertos-colibri-imx7/platform/drivers/src/i2c_imx.c.obj
 .text.I2C_SetIntCmd
                0x00000000       0x1c CMakeFiles/str_echo_freertos.dir/home/aselsan/Desktop/GPT_BACKUP/freertos-colibri-imx7/platform/drivers/src/i2c_imx.c.obj
 .text          0x00000000        0x0 CMakeFiles/str_echo_freertos.dir/home/aselsan/Desktop/GPT_BACKUP/freertos-colibri-imx7/platform/utilities/src/print_scan.c.obj
 .data          0x00000000        0x0 CMakeFiles/str_echo_freertos.dir/home/aselsan/Desktop/GPT_BACKUP/freertos-colibri-imx7/platform/utilities/src/print_scan.c.obj
 .bss           0x00000000        0x0 CMakeFiles/str_echo_freertos.dir/home/aselsan/Desktop/GPT_BACKUP/freertos-colibri-imx7/platform/utilities/src/print_scan.c.obj
 .text.scan_ignore_white_space
                0x00000000       0x30 CMakeFiles/str_echo_freertos.dir/home/aselsan/Desktop/GPT_BACKUP/freertos-colibri-imx7/platform/utilities/src/print_scan.c.obj
 .text._sputc   0x00000000        0xc CMakeFiles/str_echo_freertos.dir/home/aselsan/Desktop/GPT_BACKUP/freertos-colibri-imx7/platform/utilities/src/print_scan.c.obj
 .text.scan_prv
                0x00000000      0x3f4 CMakeFiles/str_echo_freertos.dir/home/aselsan/Desktop/GPT_BACKUP/freertos-colibri-imx7/platform/utilities/src/print_scan.c.obj
 .text          0x00000000        0x0 CMakeFiles/str_echo_freertos.dir/home/aselsan/Desktop/GPT_BACKUP/freertos-colibri-imx7/rtos/FreeRTOS/Source/croutine.c.obj
 .data          0x00000000        0x0 CMakeFiles/str_echo_freertos.dir/home/aselsan/Desktop/GPT_BACKUP/freertos-colibri-imx7/rtos/FreeRTOS/Source/croutine.c.obj
 .bss           0x00000000        0x0 CMakeFiles/str_echo_freertos.dir/home/aselsan/Desktop/GPT_BACKUP/freertos-colibri-imx7/rtos/FreeRTOS/Source/croutine.c.obj
 .debug_info    0x00000000       0x6e CMakeFiles/str_echo_freertos.dir/home/aselsan/Desktop/GPT_BACKUP/freertos-colibri-imx7/rtos/FreeRTOS/Source/croutine.c.obj
 .debug_abbrev  0x00000000       0x24 CMakeFiles/str_echo_freertos.dir/home/aselsan/Desktop/GPT_BACKUP/freertos-colibri-imx7/rtos/FreeRTOS/Source/croutine.c.obj
 .debug_aranges
                0x00000000       0x18 CMakeFiles/str_echo_freertos.dir/home/aselsan/Desktop/GPT_BACKUP/freertos-colibri-imx7/rtos/FreeRTOS/Source/croutine.c.obj
 .debug_line    0x00000000       0x1d CMakeFiles/str_echo_freertos.dir/home/aselsan/Desktop/GPT_BACKUP/freertos-colibri-imx7/rtos/FreeRTOS/Source/croutine.c.obj
 .debug_str     0x00000000      0x6e1 CMakeFiles/str_echo_freertos.dir/home/aselsan/Desktop/GPT_BACKUP/freertos-colibri-imx7/rtos/FreeRTOS/Source/croutine.c.obj
 .comment       0x00000000       0x71 CMakeFiles/str_echo_freertos.dir/home/aselsan/Desktop/GPT_BACKUP/freertos-colibri-imx7/rtos/FreeRTOS/Source/croutine.c.obj
 .ARM.attributes
                0x00000000       0x39 CMakeFiles/str_echo_freertos.dir/home/aselsan/Desktop/GPT_BACKUP/freertos-colibri-imx7/rtos/FreeRTOS/Source/croutine.c.obj
 .text          0x00000000        0x0 CMakeFiles/str_echo_freertos.dir/home/aselsan/Desktop/GPT_BACKUP/freertos-colibri-imx7/rtos/FreeRTOS/Source/event_groups.c.obj
 .data          0x00000000        0x0 CMakeFiles/str_echo_freertos.dir/home/aselsan/Desktop/GPT_BACKUP/freertos-colibri-imx7/rtos/FreeRTOS/Source/event_groups.c.obj
 .bss           0x00000000        0x0 CMakeFiles/str_echo_freertos.dir/home/aselsan/Desktop/GPT_BACKUP/freertos-colibri-imx7/rtos/FreeRTOS/Source/event_groups.c.obj
 .text.prvTestWaitCondition
                0x00000000       0x1c CMakeFiles/str_echo_freertos.dir/home/aselsan/Desktop/GPT_BACKUP/freertos-colibri-imx7/rtos/FreeRTOS/Source/event_groups.c.obj
 .text.xEventGroupCreate
                0x00000000       0x1c CMakeFiles/str_echo_freertos.dir/home/aselsan/Desktop/GPT_BACKUP/freertos-colibri-imx7/rtos/FreeRTOS/Source/event_groups.c.obj
 .text.xEventGroupWaitBits
                0x00000000       0xf0 CMakeFiles/str_echo_freertos.dir/home/aselsan/Desktop/GPT_BACKUP/freertos-colibri-imx7/rtos/FreeRTOS/Source/event_groups.c.obj
 .text.xEventGroupClearBits
                0x00000000       0x48 CMakeFiles/str_echo_freertos.dir/home/aselsan/Desktop/GPT_BACKUP/freertos-colibri-imx7/rtos/FreeRTOS/Source/event_groups.c.obj
 .text.xEventGroupGetBitsFromISR
                0x00000000       0x1c CMakeFiles/str_echo_freertos.dir/home/aselsan/Desktop/GPT_BACKUP/freertos-colibri-imx7/rtos/FreeRTOS/Source/event_groups.c.obj
 .text.xEventGroupSetBits
                0x00000000       0x9c CMakeFiles/str_echo_freertos.dir/home/aselsan/Desktop/GPT_BACKUP/freertos-colibri-imx7/rtos/FreeRTOS/Source/event_groups.c.obj
 .text.xEventGroupSync
                0x00000000       0xc0 CMakeFiles/str_echo_freertos.dir/home/aselsan/Desktop/GPT_BACKUP/freertos-colibri-imx7/rtos/FreeRTOS/Source/event_groups.c.obj
 .text.vEventGroupDelete
                0x00000000       0x40 CMakeFiles/str_echo_freertos.dir/home/aselsan/Desktop/GPT_BACKUP/freertos-colibri-imx7/rtos/FreeRTOS/Source/event_groups.c.obj
 .text.vEventGroupSetBitsCallback
                0x00000000        0x8 CMakeFiles/str_echo_freertos.dir/home/aselsan/Desktop/GPT_BACKUP/freertos-colibri-imx7/rtos/FreeRTOS/Source/event_groups.c.obj
 .text.vEventGroupClearBitsCallback
                0x00000000        0x8 CMakeFiles/str_echo_freertos.dir/home/aselsan/Desktop/GPT_BACKUP/freertos-colibri-imx7/rtos/FreeRTOS/Source/event_groups.c.obj
 .debug_info    0x00000000      0xa79 CMakeFiles/str_echo_freertos.dir/home/aselsan/Desktop/GPT_BACKUP/freertos-colibri-imx7/rtos/FreeRTOS/Source/event_groups.c.obj
 .debug_abbrev  0x00000000      0x29f CMakeFiles/str_echo_freertos.dir/home/aselsan/Desktop/GPT_BACKUP/freertos-colibri-imx7/rtos/FreeRTOS/Source/event_groups.c.obj
 .debug_loc     0x00000000      0x6d9 CMakeFiles/str_echo_freertos.dir/home/aselsan/Desktop/GPT_BACKUP/freertos-colibri-imx7/rtos/FreeRTOS/Source/event_groups.c.obj
 .debug_aranges
                0x00000000       0x68 CMakeFiles/str_echo_freertos.dir/home/aselsan/Desktop/GPT_BACKUP/freertos-colibri-imx7/rtos/FreeRTOS/Source/event_groups.c.obj
 .debug_ranges  0x00000000       0x70 CMakeFiles/str_echo_freertos.dir/home/aselsan/Desktop/GPT_BACKUP/freertos-colibri-imx7/rtos/FreeRTOS/Source/event_groups.c.obj
 .debug_line    0x00000000      0x4a1 CMakeFiles/str_echo_freertos.dir/home/aselsan/Desktop/GPT_BACKUP/freertos-colibri-imx7/rtos/FreeRTOS/Source/event_groups.c.obj
 .debug_str     0x00000000      0xb76 CMakeFiles/str_echo_freertos.dir/home/aselsan/Desktop/GPT_BACKUP/freertos-colibri-imx7/rtos/FreeRTOS/Source/event_groups.c.obj
 .comment       0x00000000       0x71 CMakeFiles/str_echo_freertos.dir/home/aselsan/Desktop/GPT_BACKUP/freertos-colibri-imx7/rtos/FreeRTOS/Source/event_groups.c.obj
 .debug_frame   0x00000000      0x110 CMakeFiles/str_echo_freertos.dir/home/aselsan/Desktop/GPT_BACKUP/freertos-colibri-imx7/rtos/FreeRTOS/Source/event_groups.c.obj
 .ARM.attributes
                0x00000000       0x39 CMakeFiles/str_echo_freertos.dir/home/aselsan/Desktop/GPT_BACKUP/freertos-colibri-imx7/rtos/FreeRTOS/Source/event_groups.c.obj
 .text          0x00000000        0x0 CMakeFiles/str_echo_freertos.dir/home/aselsan/Desktop/GPT_BACKUP/freertos-colibri-imx7/rtos/FreeRTOS/Source/list.c.obj
 .data          0x00000000        0x0 CMakeFiles/str_echo_freertos.dir/home/aselsan/Desktop/GPT_BACKUP/freertos-colibri-imx7/rtos/FreeRTOS/Source/list.c.obj
 .bss           0x00000000        0x0 CMakeFiles/str_echo_freertos.dir/home/aselsan/Desktop/GPT_BACKUP/freertos-colibri-imx7/rtos/FreeRTOS/Source/list.c.obj
 .text          0x00000000        0x0 CMakeFiles/str_echo_freertos.dir/home/aselsan/Desktop/GPT_BACKUP/freertos-colibri-imx7/rtos/FreeRTOS/Source/portable/GCC/ARM_CM4F/port.c.obj
 .data          0x00000000        0x0 CMakeFiles/str_echo_freertos.dir/home/aselsan/Desktop/GPT_BACKUP/freertos-colibri-imx7/rtos/FreeRTOS/Source/portable/GCC/ARM_CM4F/port.c.obj
 .bss           0x00000000        0x0 CMakeFiles/str_echo_freertos.dir/home/aselsan/Desktop/GPT_BACKUP/freertos-colibri-imx7/rtos/FreeRTOS/Source/portable/GCC/ARM_CM4F/port.c.obj
 .text.vPortEndScheduler
                0x00000000       0x24 CMakeFiles/str_echo_freertos.dir/home/aselsan/Desktop/GPT_BACKUP/freertos-colibri-imx7/rtos/FreeRTOS/Source/portable/GCC/ARM_CM4F/port.c.obj
 .text          0x00000000        0x0 CMakeFiles/str_echo_freertos.dir/home/aselsan/Desktop/GPT_BACKUP/freertos-colibri-imx7/rtos/FreeRTOS/Source/portable/MemMang/heap_2.c.obj
 .data          0x00000000        0x0 CMakeFiles/str_echo_freertos.dir/home/aselsan/Desktop/GPT_BACKUP/freertos-colibri-imx7/rtos/FreeRTOS/Source/portable/MemMang/heap_2.c.obj
 .bss           0x00000000        0x0 CMakeFiles/str_echo_freertos.dir/home/aselsan/Desktop/GPT_BACKUP/freertos-colibri-imx7/rtos/FreeRTOS/Source/portable/MemMang/heap_2.c.obj
 .text.xPortGetFreeHeapSize
                0x00000000        0xc CMakeFiles/str_echo_freertos.dir/home/aselsan/Desktop/GPT_BACKUP/freertos-colibri-imx7/rtos/FreeRTOS/Source/portable/MemMang/heap_2.c.obj
 .text.vPortInitialiseBlocks
                0x00000000        0x4 CMakeFiles/str_echo_freertos.dir/home/aselsan/Desktop/GPT_BACKUP/freertos-colibri-imx7/rtos/FreeRTOS/Source/portable/MemMang/heap_2.c.obj
 .text          0x00000000        0x0 CMakeFiles/str_echo_freertos.dir/home/aselsan/Desktop/GPT_BACKUP/freertos-colibri-imx7/rtos/FreeRTOS/Source/queue.c.obj
 .data          0x00000000        0x0 CMakeFiles/str_echo_freertos.dir/home/aselsan/Desktop/GPT_BACKUP/freertos-colibri-imx7/rtos/FreeRTOS/Source/queue.c.obj
 .bss           0x00000000        0x0 CMakeFiles/str_echo_freertos.dir/home/aselsan/Desktop/GPT_BACKUP/freertos-colibri-imx7/rtos/FreeRTOS/Source/queue.c.obj
 .text.xQueuePeekFromISR
                0x00000000       0x88 CMakeFiles/str_echo_freertos.dir/home/aselsan/Desktop/GPT_BACKUP/freertos-colibri-imx7/rtos/FreeRTOS/Source/queue.c.obj
 .text.uxQueueMessagesWaiting
                0x00000000       0x28 CMakeFiles/str_echo_freertos.dir/home/aselsan/Desktop/GPT_BACKUP/freertos-colibri-imx7/rtos/FreeRTOS/Source/queue.c.obj
 .text.uxQueueSpacesAvailable
                0x00000000       0x2c CMakeFiles/str_echo_freertos.dir/home/aselsan/Desktop/GPT_BACKUP/freertos-colibri-imx7/rtos/FreeRTOS/Source/queue.c.obj
 .text.uxQueueMessagesWaitingFromISR
                0x00000000       0x18 CMakeFiles/str_echo_freertos.dir/home/aselsan/Desktop/GPT_BACKUP/freertos-colibri-imx7/rtos/FreeRTOS/Source/queue.c.obj
 .text.xQueueIsQueueEmptyFromISR
                0x00000000       0x20 CMakeFiles/str_echo_freertos.dir/home/aselsan/Desktop/GPT_BACKUP/freertos-colibri-imx7/rtos/FreeRTOS/Source/queue.c.obj
 .text.xQueueIsQueueFullFromISR
                0x00000000       0x24 CMakeFiles/str_echo_freertos.dir/home/aselsan/Desktop/GPT_BACKUP/freertos-colibri-imx7/rtos/FreeRTOS/Source/queue.c.obj
 .text.vQueueAddToRegistry
                0x00000000       0x28 CMakeFiles/str_echo_freertos.dir/home/aselsan/Desktop/GPT_BACKUP/freertos-colibri-imx7/rtos/FreeRTOS/Source/queue.c.obj
 .text          0x00000000        0x0 CMakeFiles/str_echo_freertos.dir/home/aselsan/Desktop/GPT_BACKUP/freertos-colibri-imx7/rtos/FreeRTOS/Source/tasks.c.obj
 .data          0x00000000        0x0 CMakeFiles/str_echo_freertos.dir/home/aselsan/Desktop/GPT_BACKUP/freertos-colibri-imx7/rtos/FreeRTOS/Source/tasks.c.obj
 .bss           0x00000000        0x0 CMakeFiles/str_echo_freertos.dir/home/aselsan/Desktop/GPT_BACKUP/freertos-colibri-imx7/rtos/FreeRTOS/Source/tasks.c.obj
 .text.prvTaskIsTaskSuspended
                0x00000000       0x4c CMakeFiles/str_echo_freertos.dir/home/aselsan/Desktop/GPT_BACKUP/freertos-colibri-imx7/rtos/FreeRTOS/Source/tasks.c.obj
 .text.vTaskResume
                0x00000000       0x8c CMakeFiles/str_echo_freertos.dir/home/aselsan/Desktop/GPT_BACKUP/freertos-colibri-imx7/rtos/FreeRTOS/Source/tasks.c.obj
 .text.xTaskResumeFromISR
                0x00000000       0xa8 CMakeFiles/str_echo_freertos.dir/home/aselsan/Desktop/GPT_BACKUP/freertos-colibri-imx7/rtos/FreeRTOS/Source/tasks.c.obj
 .text.vTaskEndScheduler
                0x00000000       0x24 CMakeFiles/str_echo_freertos.dir/home/aselsan/Desktop/GPT_BACKUP/freertos-colibri-imx7/rtos/FreeRTOS/Source/tasks.c.obj
 .text.xTaskGetTickCount
                0x00000000        0xc CMakeFiles/str_echo_freertos.dir/home/aselsan/Desktop/GPT_BACKUP/freertos-colibri-imx7/rtos/FreeRTOS/Source/tasks.c.obj
 .text.xTaskGetTickCountFromISR
                0x00000000       0x10 CMakeFiles/str_echo_freertos.dir/home/aselsan/Desktop/GPT_BACKUP/freertos-colibri-imx7/rtos/FreeRTOS/Source/tasks.c.obj
 .text.uxTaskGetNumberOfTasks
                0x00000000        0xc CMakeFiles/str_echo_freertos.dir/home/aselsan/Desktop/GPT_BACKUP/freertos-colibri-imx7/rtos/FreeRTOS/Source/tasks.c.obj
 .text.vTaskSuspend
                0x00000000       0xd4 CMakeFiles/str_echo_freertos.dir/home/aselsan/Desktop/GPT_BACKUP/freertos-colibri-imx7/rtos/FreeRTOS/Source/tasks.c.obj
 .text.vTaskPlaceOnUnorderedEventList
                0x00000000       0x98 CMakeFiles/str_echo_freertos.dir/home/aselsan/Desktop/GPT_BACKUP/freertos-colibri-imx7/rtos/FreeRTOS/Source/tasks.c.obj
 .text.xTaskRemoveFromUnorderedEventList
                0x00000000       0x90 CMakeFiles/str_echo_freertos.dir/home/aselsan/Desktop/GPT_BACKUP/freertos-colibri-imx7/rtos/FreeRTOS/Source/tasks.c.obj
 .text.uxTaskResetEventItemValue
                0x00000000       0x18 CMakeFiles/str_echo_freertos.dir/home/aselsan/Desktop/GPT_BACKUP/freertos-colibri-imx7/rtos/FreeRTOS/Source/tasks.c.obj
 .text.ulTaskNotifyTake
                0x00000000       0xb8 CMakeFiles/str_echo_freertos.dir/home/aselsan/Desktop/GPT_BACKUP/freertos-colibri-imx7/rtos/FreeRTOS/Source/tasks.c.obj
 .text.xTaskNotifyWait
                0x00000000       0xd8 CMakeFiles/str_echo_freertos.dir/home/aselsan/Desktop/GPT_BACKUP/freertos-colibri-imx7/rtos/FreeRTOS/Source/tasks.c.obj
 .text.xTaskGenericNotify
                0x00000000       0xe4 CMakeFiles/str_echo_freertos.dir/home/aselsan/Desktop/GPT_BACKUP/freertos-colibri-imx7/rtos/FreeRTOS/Source/tasks.c.obj
 .text.xTaskGenericNotifyFromISR
                0x00000000      0x118 CMakeFiles/str_echo_freertos.dir/home/aselsan/Desktop/GPT_BACKUP/freertos-colibri-imx7/rtos/FreeRTOS/Source/tasks.c.obj
 .text.vTaskNotifyGiveFromISR
                0x00000000       0xc4 CMakeFiles/str_echo_freertos.dir/home/aselsan/Desktop/GPT_BACKUP/freertos-colibri-imx7/rtos/FreeRTOS/Source/tasks.c.obj
 .text.xTaskNotifyStateClear
                0x00000000       0x30 CMakeFiles/str_echo_freertos.dir/home/aselsan/Desktop/GPT_BACKUP/freertos-colibri-imx7/rtos/FreeRTOS/Source/tasks.c.obj
 .text          0x00000000        0x0 CMakeFiles/str_echo_freertos.dir/home/aselsan/Desktop/GPT_BACKUP/freertos-colibri-imx7/rtos/FreeRTOS/Source/timers.c.obj
 .data          0x00000000        0x0 CMakeFiles/str_echo_freertos.dir/home/aselsan/Desktop/GPT_BACKUP/freertos-colibri-imx7/rtos/FreeRTOS/Source/timers.c.obj
 .bss           0x00000000        0x0 CMakeFiles/str_echo_freertos.dir/home/aselsan/Desktop/GPT_BACKUP/freertos-colibri-imx7/rtos/FreeRTOS/Source/timers.c.obj
 .debug_info    0x00000000       0x6e CMakeFiles/str_echo_freertos.dir/home/aselsan/Desktop/GPT_BACKUP/freertos-colibri-imx7/rtos/FreeRTOS/Source/timers.c.obj
 .debug_abbrev  0x00000000       0x24 CMakeFiles/str_echo_freertos.dir/home/aselsan/Desktop/GPT_BACKUP/freertos-colibri-imx7/rtos/FreeRTOS/Source/timers.c.obj
 .debug_aranges
                0x00000000       0x18 CMakeFiles/str_echo_freertos.dir/home/aselsan/Desktop/GPT_BACKUP/freertos-colibri-imx7/rtos/FreeRTOS/Source/timers.c.obj
 .debug_line    0x00000000       0x1d CMakeFiles/str_echo_freertos.dir/home/aselsan/Desktop/GPT_BACKUP/freertos-colibri-imx7/rtos/FreeRTOS/Source/timers.c.obj
 .debug_str     0x00000000      0x6df CMakeFiles/str_echo_freertos.dir/home/aselsan/Desktop/GPT_BACKUP/freertos-colibri-imx7/rtos/FreeRTOS/Source/timers.c.obj
 .comment       0x00000000       0x71 CMakeFiles/str_echo_freertos.dir/home/aselsan/Desktop/GPT_BACKUP/freertos-colibri-imx7/rtos/FreeRTOS/Source/timers.c.obj
 .ARM.attributes
                0x00000000       0x39 CMakeFiles/str_echo_freertos.dir/home/aselsan/Desktop/GPT_BACKUP/freertos-colibri-imx7/rtos/FreeRTOS/Source/timers.c.obj
 .text          0x00000000        0x0 CMakeFiles/str_echo_freertos.dir/home/aselsan/Desktop/GPT_BACKUP/freertos-colibri-imx7/examples/imx7_colibri_m4/board.c.obj
 .data          0x00000000        0x0 CMakeFiles/str_echo_freertos.dir/home/aselsan/Desktop/GPT_BACKUP/freertos-colibri-imx7/examples/imx7_colibri_m4/board.c.obj
 .bss           0x00000000        0x0 CMakeFiles/str_echo_freertos.dir/home/aselsan/Desktop/GPT_BACKUP/freertos-colibri-imx7/examples/imx7_colibri_m4/board.c.obj
 .text.dbg_uart_init
                0x00000000       0x94 CMakeFiles/str_echo_freertos.dir/home/aselsan/Desktop/GPT_BACKUP/freertos-colibri-imx7/examples/imx7_colibri_m4/board.c.obj
 .text          0x00000000        0x0 CMakeFiles/str_echo_freertos.dir/home/aselsan/Desktop/GPT_BACKUP/freertos-colibri-imx7/examples/imx7_colibri_m4/gpio_pins.c.obj
 .data          0x00000000        0x0 CMakeFiles/str_echo_freertos.dir/home/aselsan/Desktop/GPT_BACKUP/freertos-colibri-imx7/examples/imx7_colibri_m4/gpio_pins.c.obj
 .bss           0x00000000        0x0 CMakeFiles/str_echo_freertos.dir/home/aselsan/Desktop/GPT_BACKUP/freertos-colibri-imx7/examples/imx7_colibri_m4/gpio_pins.c.obj
 .text.configure_gpio_pin
                0x00000000       0x2c CMakeFiles/str_echo_freertos.dir/home/aselsan/Desktop/GPT_BACKUP/freertos-colibri-imx7/examples/imx7_colibri_m4/gpio_pins.c.obj
 .rodata.__func__.8421
                0x00000000       0x13 CMakeFiles/str_echo_freertos.dir/home/aselsan/Desktop/GPT_BACKUP/freertos-colibri-imx7/examples/imx7_colibri_m4/gpio_pins.c.obj
 .text          0x00000000        0x0 CMakeFiles/str_echo_freertos.dir/home/aselsan/Desktop/GPT_BACKUP/freertos-colibri-imx7/examples/imx7_colibri_m4/clock_freq.c.obj
 .data          0x00000000        0x0 CMakeFiles/str_echo_freertos.dir/home/aselsan/Desktop/GPT_BACKUP/freertos-colibri-imx7/examples/imx7_colibri_m4/clock_freq.c.obj
 .bss           0x00000000        0x0 CMakeFiles/str_echo_freertos.dir/home/aselsan/Desktop/GPT_BACKUP/freertos-colibri-imx7/examples/imx7_colibri_m4/clock_freq.c.obj
 .text.get_gpt_clock_freq
                0x00000000       0x80 CMakeFiles/str_echo_freertos.dir/home/aselsan/Desktop/GPT_BACKUP/freertos-colibri-imx7/examples/imx7_colibri_m4/clock_freq.c.obj
 .text.get_ecspi_clock_freq
                0x00000000       0xa0 CMakeFiles/str_echo_freertos.dir/home/aselsan/Desktop/GPT_BACKUP/freertos-colibri-imx7/examples/imx7_colibri_m4/clock_freq.c.obj
 .text.get_flexcan_clock_freq
                0x00000000       0x90 CMakeFiles/str_echo_freertos.dir/home/aselsan/Desktop/GPT_BACKUP/freertos-colibri-imx7/examples/imx7_colibri_m4/clock_freq.c.obj
 .text          0x00000000        0x0 CMakeFiles/str_echo_freertos.dir/home/aselsan/Desktop/GPT_BACKUP/freertos-colibri-imx7/examples/imx7_colibri_m4/pin_mux.c.obj
 .data          0x00000000        0x0 CMakeFiles/str_echo_freertos.dir/home/aselsan/Desktop/GPT_BACKUP/freertos-colibri-imx7/examples/imx7_colibri_m4/pin_mux.c.obj
 .bss           0x00000000        0x0 CMakeFiles/str_echo_freertos.dir/home/aselsan/Desktop/GPT_BACKUP/freertos-colibri-imx7/examples/imx7_colibri_m4/pin_mux.c.obj
 .text.configure_flexcan_pins
                0x00000000       0x50 CMakeFiles/str_echo_freertos.dir/home/aselsan/Desktop/GPT_BACKUP/freertos-colibri-imx7/examples/imx7_colibri_m4/pin_mux.c.obj
 .text.configure_ecspi_pins
                0x00000000       0x3c CMakeFiles/str_echo_freertos.dir/home/aselsan/Desktop/GPT_BACKUP/freertos-colibri-imx7/examples/imx7_colibri_m4/pin_mux.c.obj
 .text          0x00000000        0x0 CMakeFiles/str_echo_freertos.dir/home/aselsan/Desktop/GPT_BACKUP/freertos-colibri-imx7/examples/imx7_colibri_m4/demo_apps/rpmsg/str_echo_freertos/hardware_init.c.obj
 .data          0x00000000        0x0 CMakeFiles/str_echo_freertos.dir/home/aselsan/Desktop/GPT_BACKUP/freertos-colibri-imx7/examples/imx7_colibri_m4/demo_apps/rpmsg/str_echo_freertos/hardware_init.c.obj
 .bss           0x00000000        0x0 CMakeFiles/str_echo_freertos.dir/home/aselsan/Desktop/GPT_BACKUP/freertos-colibri-imx7/examples/imx7_colibri_m4/demo_apps/rpmsg/str_echo_freertos/hardware_init.c.obj
 .text          0x00000000        0x0 CMakeFiles/str_echo_freertos.dir/home/aselsan/Desktop/GPT_BACKUP/freertos-colibri-imx7/examples/imx7_colibri_m4/demo_apps/rpmsg/str_echo_freertos/str_echo_freertos.c.obj
 .data          0x00000000        0x0 CMakeFiles/str_echo_freertos.dir/home/aselsan/Desktop/GPT_BACKUP/freertos-colibri-imx7/examples/imx7_colibri_m4/demo_apps/rpmsg/str_echo_freertos/str_echo_freertos.c.obj
 .bss           0x00000000        0x0 CMakeFiles/str_echo_freertos.dir/home/aselsan/Desktop/GPT_BACKUP/freertos-colibri-imx7/examples/imx7_colibri_m4/demo_apps/rpmsg/str_echo_freertos/str_echo_freertos.c.obj
 .text          0x00000000        0x0 CMakeFiles/str_echo_freertos.dir/home/aselsan/Desktop/GPT_BACKUP/freertos-colibri-imx7/examples/imx7_colibri_m4/demo_apps/rpmsg/str_echo_freertos/watchdog.c.obj
 .data          0x00000000        0x0 CMakeFiles/str_echo_freertos.dir/home/aselsan/Desktop/GPT_BACKUP/freertos-colibri-imx7/examples/imx7_colibri_m4/demo_apps/rpmsg/str_echo_freertos/watchdog.c.obj
 .bss           0x00000000        0x0 CMakeFiles/str_echo_freertos.dir/home/aselsan/Desktop/GPT_BACKUP/freertos-colibri-imx7/examples/imx7_colibri_m4/demo_apps/rpmsg/str_echo_freertos/watchdog.c.obj
 .debug_info    0x00000000       0x8a CMakeFiles/str_echo_freertos.dir/home/aselsan/Desktop/GPT_BACKUP/freertos-colibri-imx7/examples/imx7_colibri_m4/demo_apps/rpmsg/str_echo_freertos/watchdog.c.obj
 .debug_abbrev  0x00000000       0x49 CMakeFiles/str_echo_freertos.dir/home/aselsan/Desktop/GPT_BACKUP/freertos-colibri-imx7/examples/imx7_colibri_m4/demo_apps/rpmsg/str_echo_freertos/watchdog.c.obj
 .debug_aranges
                0x00000000       0x18 CMakeFiles/str_echo_freertos.dir/home/aselsan/Desktop/GPT_BACKUP/freertos-colibri-imx7/examples/imx7_colibri_m4/demo_apps/rpmsg/str_echo_freertos/watchdog.c.obj
 .debug_line    0x00000000      0x143 CMakeFiles/str_echo_freertos.dir/home/aselsan/Desktop/GPT_BACKUP/freertos-colibri-imx7/examples/imx7_colibri_m4/demo_apps/rpmsg/str_echo_freertos/watchdog.c.obj
 .debug_str     0x00000000      0x71d CMakeFiles/str_echo_freertos.dir/home/aselsan/Desktop/GPT_BACKUP/freertos-colibri-imx7/examples/imx7_colibri_m4/demo_apps/rpmsg/str_echo_freertos/watchdog.c.obj
 .comment       0x00000000       0x71 CMakeFiles/str_echo_freertos.dir/home/aselsan/Desktop/GPT_BACKUP/freertos-colibri-imx7/examples/imx7_colibri_m4/demo_apps/rpmsg/str_echo_freertos/watchdog.c.obj
 .ARM.attributes
                0x00000000       0x39 CMakeFiles/str_echo_freertos.dir/home/aselsan/Desktop/GPT_BACKUP/freertos-colibri-imx7/examples/imx7_colibri_m4/demo_apps/rpmsg/str_echo_freertos/watchdog.c.obj
 .text          0x00000000        0x0 CMakeFiles/str_echo_freertos.dir/home/aselsan/Desktop/GPT_BACKUP/freertos-colibri-imx7/examples/imx7_colibri_m4/demo_apps/rpmsg/str_echo_freertos/timer.c.obj
 .data          0x00000000        0x0 CMakeFiles/str_echo_freertos.dir/home/aselsan/Desktop/GPT_BACKUP/freertos-colibri-imx7/examples/imx7_colibri_m4/demo_apps/rpmsg/str_echo_freertos/timer.c.obj
 .bss           0x00000000        0x0 CMakeFiles/str_echo_freertos.dir/home/aselsan/Desktop/GPT_BACKUP/freertos-colibri-imx7/examples/imx7_colibri_m4/demo_apps/rpmsg/str_echo_freertos/timer.c.obj
 .text          0x00000000        0x0 CMakeFiles/str_echo_freertos.dir/home/aselsan/Desktop/GPT_BACKUP/freertos-colibri-imx7/examples/imx7_colibri_m4/demo_apps/rpmsg/str_echo_freertos/gpio.c.obj
 .data          0x00000000        0x0 CMakeFiles/str_echo_freertos.dir/home/aselsan/Desktop/GPT_BACKUP/freertos-colibri-imx7/examples/imx7_colibri_m4/demo_apps/rpmsg/str_echo_freertos/gpio.c.obj
 .bss           0x00000000        0x0 CMakeFiles/str_echo_freertos.dir/home/aselsan/Desktop/GPT_BACKUP/freertos-colibri-imx7/examples/imx7_colibri_m4/demo_apps/rpmsg/str_echo_freertos/gpio.c.obj
 .text.read_rotary_encoder
                0x00000000      0x1d0 CMakeFiles/str_echo_freertos.dir/home/aselsan/Desktop/GPT_BACKUP/freertos-colibri-imx7/examples/imx7_colibri_m4/demo_apps/rpmsg/str_echo_freertos/gpio.c.obj
 .data.encoder_input_a
                0x00000000        0x1 CMakeFiles/str_echo_freertos.dir/home/aselsan/Desktop/GPT_BACKUP/freertos-colibri-imx7/examples/imx7_colibri_m4/demo_apps/rpmsg/str_echo_freertos/gpio.c.obj
 .rodata.__func__.8346
                0x00000000       0x12 CMakeFiles/str_echo_freertos.dir/home/aselsan/Desktop/GPT_BACKUP/freertos-colibri-imx7/examples/imx7_colibri_m4/demo_apps/rpmsg/str_echo_freertos/gpio.c.obj
 .data.encoder_button
                0x00000000        0x1 CMakeFiles/str_echo_freertos.dir/home/aselsan/Desktop/GPT_BACKUP/freertos-colibri-imx7/examples/imx7_colibri_m4/demo_apps/rpmsg/str_echo_freertos/gpio.c.obj
 .bss.encoder_input_b
                0x00000000        0x1 CMakeFiles/str_echo_freertos.dir/home/aselsan/Desktop/GPT_BACKUP/freertos-colibri-imx7/examples/imx7_colibri_m4/demo_apps/rpmsg/str_echo_freertos/gpio.c.obj
 .text          0x00000000        0x0 CMakeFiles/str_echo_freertos.dir/home/aselsan/Desktop/GPT_BACKUP/freertos-colibri-imx7/examples/imx7_colibri_m4/demo_apps/rpmsg/str_echo_freertos/i2c.c.obj
 .data          0x00000000        0x0 CMakeFiles/str_echo_freertos.dir/home/aselsan/Desktop/GPT_BACKUP/freertos-colibri-imx7/examples/imx7_colibri_m4/demo_apps/rpmsg/str_echo_freertos/i2c.c.obj
 .bss           0x00000000        0x0 CMakeFiles/str_echo_freertos.dir/home/aselsan/Desktop/GPT_BACKUP/freertos-colibri-imx7/examples/imx7_colibri_m4/demo_apps/rpmsg/str_echo_freertos/i2c.c.obj
 .text          0x00000000        0x0 CMakeFiles/str_echo_freertos.dir/home/aselsan/Desktop/GPT_BACKUP/freertos-colibri-imx7/examples/imx7_colibri_m4/demo_apps/rpmsg/str_echo_freertos/comm_skb.c.obj
 .data          0x00000000        0x0 CMakeFiles/str_echo_freertos.dir/home/aselsan/Desktop/GPT_BACKUP/freertos-colibri-imx7/examples/imx7_colibri_m4/demo_apps/rpmsg/str_echo_freertos/comm_skb.c.obj
 .bss           0x00000000        0x0 CMakeFiles/str_echo_freertos.dir/home/aselsan/Desktop/GPT_BACKUP/freertos-colibri-imx7/examples/imx7_colibri_m4/demo_apps/rpmsg/str_echo_freertos/comm_skb.c.obj
 .bss.is_rec_buf_full
                0x00000000        0x1 CMakeFiles/str_echo_freertos.dir/home/aselsan/Desktop/GPT_BACKUP/freertos-colibri-imx7/examples/imx7_colibri_m4/demo_apps/rpmsg/str_echo_freertos/comm_skb.c.obj
 .text          0x00000000        0x0 /home/aselsan/Desktop/IMX7/toolchain/gcc-arm-none-eabi-4_9-2015q3/bin/../lib/gcc/arm-none-eabi/4.9.3/../../../../arm-none-eabi/lib/armv7e-m/fpu/libc_nano.a(lib_a-assert.o)
 .data          0x00000000        0x0 /home/aselsan/Desktop/IMX7/toolchain/gcc-arm-none-eabi-4_9-2015q3/bin/../lib/gcc/arm-none-eabi/4.9.3/../../../../arm-none-eabi/lib/armv7e-m/fpu/libc_nano.a(lib_a-assert.o)
 .bss           0x00000000        0x0 /home/aselsan/Desktop/IMX7/toolchain/gcc-arm-none-eabi-4_9-2015q3/bin/../lib/gcc/arm-none-eabi/4.9.3/../../../../arm-none-eabi/lib/armv7e-m/fpu/libc_nano.a(lib_a-assert.o)
 .text.__assert
                0x00000000        0xa /home/aselsan/Desktop/IMX7/toolchain/gcc-arm-none-eabi-4_9-2015q3/bin/../lib/gcc/arm-none-eabi/4.9.3/../../../../arm-none-eabi/lib/armv7e-m/fpu/libc_nano.a(lib_a-assert.o)
 .text          0x00000000        0x0 /home/aselsan/Desktop/IMX7/toolchain/gcc-arm-none-eabi-4_9-2015q3/bin/../lib/gcc/arm-none-eabi/4.9.3/../../../../arm-none-eabi/lib/armv7e-m/fpu/libc_nano.a(lib_a-exit.o)
 .data          0x00000000        0x0 /home/aselsan/Desktop/IMX7/toolchain/gcc-arm-none-eabi-4_9-2015q3/bin/../lib/gcc/arm-none-eabi/4.9.3/../../../../arm-none-eabi/lib/armv7e-m/fpu/libc_nano.a(lib_a-exit.o)
 .bss           0x00000000        0x0 /home/aselsan/Desktop/IMX7/toolchain/gcc-arm-none-eabi-4_9-2015q3/bin/../lib/gcc/arm-none-eabi/4.9.3/../../../../arm-none-eabi/lib/armv7e-m/fpu/libc_nano.a(lib_a-exit.o)
 .text          0x00000000        0x0 /home/aselsan/Desktop/IMX7/toolchain/gcc-arm-none-eabi-4_9-2015q3/bin/../lib/gcc/arm-none-eabi/4.9.3/../../../../arm-none-eabi/lib/armv7e-m/fpu/libc_nano.a(lib_a-fprintf.o)
 .data          0x00000000        0x0 /home/aselsan/Desktop/IMX7/toolchain/gcc-arm-none-eabi-4_9-2015q3/bin/../lib/gcc/arm-none-eabi/4.9.3/../../../../arm-none-eabi/lib/armv7e-m/fpu/libc_nano.a(lib_a-fprintf.o)
 .bss           0x00000000        0x0 /home/aselsan/Desktop/IMX7/toolchain/gcc-arm-none-eabi-4_9-2015q3/bin/../lib/gcc/arm-none-eabi/4.9.3/../../../../arm-none-eabi/lib/armv7e-m/fpu/libc_nano.a(lib_a-fprintf.o)
 .text._fprintf_r
                0x00000000       0x1a /home/aselsan/Desktop/IMX7/toolchain/gcc-arm-none-eabi-4_9-2015q3/bin/../lib/gcc/arm-none-eabi/4.9.3/../../../../arm-none-eabi/lib/armv7e-m/fpu/libc_nano.a(lib_a-fprintf.o)
 .text          0x00000000        0x0 /home/aselsan/Desktop/IMX7/toolchain/gcc-arm-none-eabi-4_9-2015q3/bin/../lib/gcc/arm-none-eabi/4.9.3/../../../../arm-none-eabi/lib/armv7e-m/fpu/libc_nano.a(lib_a-impure.o)
 .data          0x00000000        0x0 /home/aselsan/Desktop/IMX7/toolchain/gcc-arm-none-eabi-4_9-2015q3/bin/../lib/gcc/arm-none-eabi/4.9.3/../../../../arm-none-eabi/lib/armv7e-m/fpu/libc_nano.a(lib_a-impure.o)
 .bss           0x00000000        0x0 /home/aselsan/Desktop/IMX7/toolchain/gcc-arm-none-eabi-4_9-2015q3/bin/../lib/gcc/arm-none-eabi/4.9.3/../../../../arm-none-eabi/lib/armv7e-m/fpu/libc_nano.a(lib_a-impure.o)
 .text          0x00000000        0x0 /home/aselsan/Desktop/IMX7/toolchain/gcc-arm-none-eabi-4_9-2015q3/bin/../lib/gcc/arm-none-eabi/4.9.3/../../../../arm-none-eabi/lib/armv7e-m/fpu/libc_nano.a(lib_a-init.o)
 .data          0x00000000        0x0 /home/aselsan/Desktop/IMX7/toolchain/gcc-arm-none-eabi-4_9-2015q3/bin/../lib/gcc/arm-none-eabi/4.9.3/../../../../arm-none-eabi/lib/armv7e-m/fpu/libc_nano.a(lib_a-init.o)
 .bss           0x00000000        0x0 /home/aselsan/Desktop/IMX7/toolchain/gcc-arm-none-eabi-4_9-2015q3/bin/../lib/gcc/arm-none-eabi/4.9.3/../../../../arm-none-eabi/lib/armv7e-m/fpu/libc_nano.a(lib_a-init.o)
 .text          0x00000000        0x0 /home/aselsan/Desktop/IMX7/toolchain/gcc-arm-none-eabi-4_9-2015q3/bin/../lib/gcc/arm-none-eabi/4.9.3/../../../../arm-none-eabi/lib/armv7e-m/fpu/libc_nano.a(lib_a-memcpy.o)
 .data          0x00000000        0x0 /home/aselsan/Desktop/IMX7/toolchain/gcc-arm-none-eabi-4_9-2015q3/bin/../lib/gcc/arm-none-eabi/4.9.3/../../../../arm-none-eabi/lib/armv7e-m/fpu/libc_nano.a(lib_a-memcpy.o)
 .bss           0x00000000        0x0 /home/aselsan/Desktop/IMX7/toolchain/gcc-arm-none-eabi-4_9-2015q3/bin/../lib/gcc/arm-none-eabi/4.9.3/../../../../arm-none-eabi/lib/armv7e-m/fpu/libc_nano.a(lib_a-memcpy.o)
 .text          0x00000000        0x0 /home/aselsan/Desktop/IMX7/toolchain/gcc-arm-none-eabi-4_9-2015q3/bin/../lib/gcc/arm-none-eabi/4.9.3/../../../../arm-none-eabi/lib/armv7e-m/fpu/libc_nano.a(lib_a-memset.o)
 .data          0x00000000        0x0 /home/aselsan/Desktop/IMX7/toolchain/gcc-arm-none-eabi-4_9-2015q3/bin/../lib/gcc/arm-none-eabi/4.9.3/../../../../arm-none-eabi/lib/armv7e-m/fpu/libc_nano.a(lib_a-memset.o)
 .bss           0x00000000        0x0 /home/aselsan/Desktop/IMX7/toolchain/gcc-arm-none-eabi-4_9-2015q3/bin/../lib/gcc/arm-none-eabi/4.9.3/../../../../arm-none-eabi/lib/armv7e-m/fpu/libc_nano.a(lib_a-memset.o)
 .text          0x00000000        0x0 /home/aselsan/Desktop/IMX7/toolchain/gcc-arm-none-eabi-4_9-2015q3/bin/../lib/gcc/arm-none-eabi/4.9.3/../../../../arm-none-eabi/lib/armv7e-m/fpu/libc_nano.a(lib_a-nano-vfprintf.o)
 .data          0x00000000        0x0 /home/aselsan/Desktop/IMX7/toolchain/gcc-arm-none-eabi-4_9-2015q3/bin/../lib/gcc/arm-none-eabi/4.9.3/../../../../arm-none-eabi/lib/armv7e-m/fpu/libc_nano.a(lib_a-nano-vfprintf.o)
 .bss           0x00000000        0x0 /home/aselsan/Desktop/IMX7/toolchain/gcc-arm-none-eabi-4_9-2015q3/bin/../lib/gcc/arm-none-eabi/4.9.3/../../../../arm-none-eabi/lib/armv7e-m/fpu/libc_nano.a(lib_a-nano-vfprintf.o)
 .text.__sprint_r
                0x00000000       0x1a /home/aselsan/Desktop/IMX7/toolchain/gcc-arm-none-eabi-4_9-2015q3/bin/../lib/gcc/arm-none-eabi/4.9.3/../../../../arm-none-eabi/lib/armv7e-m/fpu/libc_nano.a(lib_a-nano-vfprintf.o)
 .text.vfprintf
                0x00000000       0x1c /home/aselsan/Desktop/IMX7/toolchain/gcc-arm-none-eabi-4_9-2015q3/bin/../lib/gcc/arm-none-eabi/4.9.3/../../../../arm-none-eabi/lib/armv7e-m/fpu/libc_nano.a(lib_a-nano-vfprintf.o)
 .text          0x00000000        0x0 /home/aselsan/Desktop/IMX7/toolchain/gcc-arm-none-eabi-4_9-2015q3/bin/../lib/gcc/arm-none-eabi/4.9.3/../../../../arm-none-eabi/lib/armv7e-m/fpu/libc_nano.a(lib_a-nano-vfprintf_i.o)
 .data          0x00000000        0x0 /home/aselsan/Desktop/IMX7/toolchain/gcc-arm-none-eabi-4_9-2015q3/bin/../lib/gcc/arm-none-eabi/4.9.3/../../../../arm-none-eabi/lib/armv7e-m/fpu/libc_nano.a(lib_a-nano-vfprintf_i.o)
 .bss           0x00000000        0x0 /home/aselsan/Desktop/IMX7/toolchain/gcc-arm-none-eabi-4_9-2015q3/bin/../lib/gcc/arm-none-eabi/4.9.3/../../../../arm-none-eabi/lib/armv7e-m/fpu/libc_nano.a(lib_a-nano-vfprintf_i.o)
 .text          0x00000000       0x14 /home/aselsan/Desktop/IMX7/toolchain/gcc-arm-none-eabi-4_9-2015q3/bin/../lib/gcc/arm-none-eabi/4.9.3/../../../../arm-none-eabi/lib/armv7e-m/fpu/libc_nano.a(lib_a-strcmp.o)
 .data          0x00000000        0x0 /home/aselsan/Desktop/IMX7/toolchain/gcc-arm-none-eabi-4_9-2015q3/bin/../lib/gcc/arm-none-eabi/4.9.3/../../../../arm-none-eabi/lib/armv7e-m/fpu/libc_nano.a(lib_a-strcmp.o)
 .bss           0x00000000        0x0 /home/aselsan/Desktop/IMX7/toolchain/gcc-arm-none-eabi-4_9-2015q3/bin/../lib/gcc/arm-none-eabi/4.9.3/../../../../arm-none-eabi/lib/armv7e-m/fpu/libc_nano.a(lib_a-strcmp.o)
 .eh_frame      0x00000000       0x28 /home/aselsan/Desktop/IMX7/toolchain/gcc-arm-none-eabi-4_9-2015q3/bin/../lib/gcc/arm-none-eabi/4.9.3/../../../../arm-none-eabi/lib/armv7e-m/fpu/libc_nano.a(lib_a-strcmp.o)
 .ARM.attributes
                0x00000000       0x20 /home/aselsan/Desktop/IMX7/toolchain/gcc-arm-none-eabi-4_9-2015q3/bin/../lib/gcc/arm-none-eabi/4.9.3/../../../../arm-none-eabi/lib/armv7e-m/fpu/libc_nano.a(lib_a-strcmp.o)
 .text          0x00000000        0x0 /home/aselsan/Desktop/IMX7/toolchain/gcc-arm-none-eabi-4_9-2015q3/bin/../lib/gcc/arm-none-eabi/4.9.3/../../../../arm-none-eabi/lib/armv7e-m/fpu/libc_nano.a(lib_a-strlen.o)
 .data          0x00000000        0x0 /home/aselsan/Desktop/IMX7/toolchain/gcc-arm-none-eabi-4_9-2015q3/bin/../lib/gcc/arm-none-eabi/4.9.3/../../../../arm-none-eabi/lib/armv7e-m/fpu/libc_nano.a(lib_a-strlen.o)
 .bss           0x00000000        0x0 /home/aselsan/Desktop/IMX7/toolchain/gcc-arm-none-eabi-4_9-2015q3/bin/../lib/gcc/arm-none-eabi/4.9.3/../../../../arm-none-eabi/lib/armv7e-m/fpu/libc_nano.a(lib_a-strlen.o)
 .text          0x00000000        0x0 /home/aselsan/Desktop/IMX7/toolchain/gcc-arm-none-eabi-4_9-2015q3/bin/../lib/gcc/arm-none-eabi/4.9.3/../../../../arm-none-eabi/lib/armv7e-m/fpu/libc_nano.a(lib_a-strncmp.o)
 .data          0x00000000        0x0 /home/aselsan/Desktop/IMX7/toolchain/gcc-arm-none-eabi-4_9-2015q3/bin/../lib/gcc/arm-none-eabi/4.9.3/../../../../arm-none-eabi/lib/armv7e-m/fpu/libc_nano.a(lib_a-strncmp.o)
 .bss           0x00000000        0x0 /home/aselsan/Desktop/IMX7/toolchain/gcc-arm-none-eabi-4_9-2015q3/bin/../lib/gcc/arm-none-eabi/4.9.3/../../../../arm-none-eabi/lib/armv7e-m/fpu/libc_nano.a(lib_a-strncmp.o)
 .text          0x00000000        0x0 /home/aselsan/Desktop/IMX7/toolchain/gcc-arm-none-eabi-4_9-2015q3/bin/../lib/gcc/arm-none-eabi/4.9.3/../../../../arm-none-eabi/lib/armv7e-m/fpu/libc_nano.a(lib_a-strncpy.o)
 .data          0x00000000        0x0 /home/aselsan/Desktop/IMX7/toolchain/gcc-arm-none-eabi-4_9-2015q3/bin/../lib/gcc/arm-none-eabi/4.9.3/../../../../arm-none-eabi/lib/armv7e-m/fpu/libc_nano.a(lib_a-strncpy.o)
 .bss           0x00000000        0x0 /home/aselsan/Desktop/IMX7/toolchain/gcc-arm-none-eabi-4_9-2015q3/bin/../lib/gcc/arm-none-eabi/4.9.3/../../../../arm-none-eabi/lib/armv7e-m/fpu/libc_nano.a(lib_a-strncpy.o)
 .text          0x00000000        0x0 /home/aselsan/Desktop/IMX7/toolchain/gcc-arm-none-eabi-4_9-2015q3/bin/../lib/gcc/arm-none-eabi/4.9.3/../../../../arm-none-eabi/lib/armv7e-m/fpu/libc_nano.a(lib_a-wbuf.o)
 .data          0x00000000        0x0 /home/aselsan/Desktop/IMX7/toolchain/gcc-arm-none-eabi-4_9-2015q3/bin/../lib/gcc/arm-none-eabi/4.9.3/../../../../arm-none-eabi/lib/armv7e-m/fpu/libc_nano.a(lib_a-wbuf.o)
 .bss           0x00000000        0x0 /home/aselsan/Desktop/IMX7/toolchain/gcc-arm-none-eabi-4_9-2015q3/bin/../lib/gcc/arm-none-eabi/4.9.3/../../../../arm-none-eabi/lib/armv7e-m/fpu/libc_nano.a(lib_a-wbuf.o)
 .text.__swbuf  0x00000000       0x14 /home/aselsan/Desktop/IMX7/toolchain/gcc-arm-none-eabi-4_9-2015q3/bin/../lib/gcc/arm-none-eabi/4.9.3/../../../../arm-none-eabi/lib/armv7e-m/fpu/libc_nano.a(lib_a-wbuf.o)
 .text          0x00000000        0x0 /home/aselsan/Desktop/IMX7/toolchain/gcc-arm-none-eabi-4_9-2015q3/bin/../lib/gcc/arm-none-eabi/4.9.3/../../../../arm-none-eabi/lib/armv7e-m/fpu/libc_nano.a(lib_a-wsetup.o)
 .data          0x00000000        0x0 /home/aselsan/Desktop/IMX7/toolchain/gcc-arm-none-eabi-4_9-2015q3/bin/../lib/gcc/arm-none-eabi/4.9.3/../../../../arm-none-eabi/lib/armv7e-m/fpu/libc_nano.a(lib_a-wsetup.o)
 .bss           0x00000000        0x0 /home/aselsan/Desktop/IMX7/toolchain/gcc-arm-none-eabi-4_9-2015q3/bin/../lib/gcc/arm-none-eabi/4.9.3/../../../../arm-none-eabi/lib/armv7e-m/fpu/libc_nano.a(lib_a-wsetup.o)
 .text          0x00000000        0x0 /home/aselsan/Desktop/IMX7/toolchain/gcc-arm-none-eabi-4_9-2015q3/bin/../lib/gcc/arm-none-eabi/4.9.3/../../../../arm-none-eabi/lib/armv7e-m/fpu/libc_nano.a(lib_a-abort.o)
 .data          0x00000000        0x0 /home/aselsan/Desktop/IMX7/toolchain/gcc-arm-none-eabi-4_9-2015q3/bin/../lib/gcc/arm-none-eabi/4.9.3/../../../../arm-none-eabi/lib/armv7e-m/fpu/libc_nano.a(lib_a-abort.o)
 .bss           0x00000000        0x0 /home/aselsan/Desktop/IMX7/toolchain/gcc-arm-none-eabi-4_9-2015q3/bin/../lib/gcc/arm-none-eabi/4.9.3/../../../../arm-none-eabi/lib/armv7e-m/fpu/libc_nano.a(lib_a-abort.o)
 .text          0x00000000        0x0 /home/aselsan/Desktop/IMX7/toolchain/gcc-arm-none-eabi-4_9-2015q3/bin/../lib/gcc/arm-none-eabi/4.9.3/../../../../arm-none-eabi/lib/armv7e-m/fpu/libc_nano.a(lib_a-fflush.o)
 .data          0x00000000        0x0 /home/aselsan/Desktop/IMX7/toolchain/gcc-arm-none-eabi-4_9-2015q3/bin/../lib/gcc/arm-none-eabi/4.9.3/../../../../arm-none-eabi/lib/armv7e-m/fpu/libc_nano.a(lib_a-fflush.o)
 .bss           0x00000000        0x0 /home/aselsan/Desktop/IMX7/toolchain/gcc-arm-none-eabi-4_9-2015q3/bin/../lib/gcc/arm-none-eabi/4.9.3/../../../../arm-none-eabi/lib/armv7e-m/fpu/libc_nano.a(lib_a-fflush.o)
 .text.fflush   0x00000000       0x24 /home/aselsan/Desktop/IMX7/toolchain/gcc-arm-none-eabi-4_9-2015q3/bin/../lib/gcc/arm-none-eabi/4.9.3/../../../../arm-none-eabi/lib/armv7e-m/fpu/libc_nano.a(lib_a-fflush.o)
 .text          0x00000000        0x0 /home/aselsan/Desktop/IMX7/toolchain/gcc-arm-none-eabi-4_9-2015q3/bin/../lib/gcc/arm-none-eabi/4.9.3/../../../../arm-none-eabi/lib/armv7e-m/fpu/libc_nano.a(lib_a-findfp.o)
 .data          0x00000000        0x0 /home/aselsan/Desktop/IMX7/toolchain/gcc-arm-none-eabi-4_9-2015q3/bin/../lib/gcc/arm-none-eabi/4.9.3/../../../../arm-none-eabi/lib/armv7e-m/fpu/libc_nano.a(lib_a-findfp.o)
 .bss           0x00000000        0x0 /home/aselsan/Desktop/IMX7/toolchain/gcc-arm-none-eabi-4_9-2015q3/bin/../lib/gcc/arm-none-eabi/4.9.3/../../../../arm-none-eabi/lib/armv7e-m/fpu/libc_nano.a(lib_a-findfp.o)
 .text.__fp_lock
                0x00000000        0x4 /home/aselsan/Desktop/IMX7/toolchain/gcc-arm-none-eabi-4_9-2015q3/bin/../lib/gcc/arm-none-eabi/4.9.3/../../../../arm-none-eabi/lib/armv7e-m/fpu/libc_nano.a(lib_a-findfp.o)
 .text.__fp_unlock
                0x00000000        0x4 /home/aselsan/Desktop/IMX7/toolchain/gcc-arm-none-eabi-4_9-2015q3/bin/../lib/gcc/arm-none-eabi/4.9.3/../../../../arm-none-eabi/lib/armv7e-m/fpu/libc_nano.a(lib_a-findfp.o)
 .text._cleanup
                0x00000000        0xc /home/aselsan/Desktop/IMX7/toolchain/gcc-arm-none-eabi-4_9-2015q3/bin/../lib/gcc/arm-none-eabi/4.9.3/../../../../arm-none-eabi/lib/armv7e-m/fpu/libc_nano.a(lib_a-findfp.o)
 .text.__sfp_lock_acquire
                0x00000000        0x2 /home/aselsan/Desktop/IMX7/toolchain/gcc-arm-none-eabi-4_9-2015q3/bin/../lib/gcc/arm-none-eabi/4.9.3/../../../../arm-none-eabi/lib/armv7e-m/fpu/libc_nano.a(lib_a-findfp.o)
 .text.__sfp_lock_release
                0x00000000        0x2 /home/aselsan/Desktop/IMX7/toolchain/gcc-arm-none-eabi-4_9-2015q3/bin/../lib/gcc/arm-none-eabi/4.9.3/../../../../arm-none-eabi/lib/armv7e-m/fpu/libc_nano.a(lib_a-findfp.o)
 .text.__sinit_lock_acquire
                0x00000000        0x2 /home/aselsan/Desktop/IMX7/toolchain/gcc-arm-none-eabi-4_9-2015q3/bin/../lib/gcc/arm-none-eabi/4.9.3/../../../../arm-none-eabi/lib/armv7e-m/fpu/libc_nano.a(lib_a-findfp.o)
 .text.__sinit_lock_release
                0x00000000        0x2 /home/aselsan/Desktop/IMX7/toolchain/gcc-arm-none-eabi-4_9-2015q3/bin/../lib/gcc/arm-none-eabi/4.9.3/../../../../arm-none-eabi/lib/armv7e-m/fpu/libc_nano.a(lib_a-findfp.o)
 .text.__fp_lock_all
                0x00000000       0x14 /home/aselsan/Desktop/IMX7/toolchain/gcc-arm-none-eabi-4_9-2015q3/bin/../lib/gcc/arm-none-eabi/4.9.3/../../../../arm-none-eabi/lib/armv7e-m/fpu/libc_nano.a(lib_a-findfp.o)
 .text.__fp_unlock_all
                0x00000000       0x14 /home/aselsan/Desktop/IMX7/toolchain/gcc-arm-none-eabi-4_9-2015q3/bin/../lib/gcc/arm-none-eabi/4.9.3/../../../../arm-none-eabi/lib/armv7e-m/fpu/libc_nano.a(lib_a-findfp.o)
 .text          0x00000000        0x0 /home/aselsan/Desktop/IMX7/toolchain/gcc-arm-none-eabi-4_9-2015q3/bin/../lib/gcc/arm-none-eabi/4.9.3/../../../../arm-none-eabi/lib/armv7e-m/fpu/libc_nano.a(lib_a-fvwrite.o)
 .data          0x00000000        0x0 /home/aselsan/Desktop/IMX7/toolchain/gcc-arm-none-eabi-4_9-2015q3/bin/../lib/gcc/arm-none-eabi/4.9.3/../../../../arm-none-eabi/lib/armv7e-m/fpu/libc_nano.a(lib_a-fvwrite.o)
 .bss           0x00000000        0x0 /home/aselsan/Desktop/IMX7/toolchain/gcc-arm-none-eabi-4_9-2015q3/bin/../lib/gcc/arm-none-eabi/4.9.3/../../../../arm-none-eabi/lib/armv7e-m/fpu/libc_nano.a(lib_a-fvwrite.o)
 .text.__sfvwrite_r
                0x00000000      0x2a0 /home/aselsan/Desktop/IMX7/toolchain/gcc-arm-none-eabi-4_9-2015q3/bin/../lib/gcc/arm-none-eabi/4.9.3/../../../../arm-none-eabi/lib/armv7e-m/fpu/libc_nano.a(lib_a-fvwrite.o)
 .debug_frame   0x00000000       0x3c /home/aselsan/Desktop/IMX7/toolchain/gcc-arm-none-eabi-4_9-2015q3/bin/../lib/gcc/arm-none-eabi/4.9.3/../../../../arm-none-eabi/lib/armv7e-m/fpu/libc_nano.a(lib_a-fvwrite.o)
 .ARM.attributes
                0x00000000       0x34 /home/aselsan/Desktop/IMX7/toolchain/gcc-arm-none-eabi-4_9-2015q3/bin/../lib/gcc/arm-none-eabi/4.9.3/../../../../arm-none-eabi/lib/armv7e-m/fpu/libc_nano.a(lib_a-fvwrite.o)
 .text          0x00000000        0x0 /home/aselsan/Desktop/IMX7/toolchain/gcc-arm-none-eabi-4_9-2015q3/bin/../lib/gcc/arm-none-eabi/4.9.3/../../../../arm-none-eabi/lib/armv7e-m/fpu/libc_nano.a(lib_a-fwalk.o)
 .data          0x00000000        0x0 /home/aselsan/Desktop/IMX7/toolchain/gcc-arm-none-eabi-4_9-2015q3/bin/../lib/gcc/arm-none-eabi/4.9.3/../../../../arm-none-eabi/lib/armv7e-m/fpu/libc_nano.a(lib_a-fwalk.o)
 .bss           0x00000000        0x0 /home/aselsan/Desktop/IMX7/toolchain/gcc-arm-none-eabi-4_9-2015q3/bin/../lib/gcc/arm-none-eabi/4.9.3/../../../../arm-none-eabi/lib/armv7e-m/fpu/libc_nano.a(lib_a-fwalk.o)
 .text._fwalk   0x00000000       0x38 /home/aselsan/Desktop/IMX7/toolchain/gcc-arm-none-eabi-4_9-2015q3/bin/../lib/gcc/arm-none-eabi/4.9.3/../../../../arm-none-eabi/lib/armv7e-m/fpu/libc_nano.a(lib_a-fwalk.o)
 .text          0x00000000        0x0 /home/aselsan/Desktop/IMX7/toolchain/gcc-arm-none-eabi-4_9-2015q3/bin/../lib/gcc/arm-none-eabi/4.9.3/../../../../arm-none-eabi/lib/armv7e-m/fpu/libc_nano.a(lib_a-makebuf.o)
 .data          0x00000000        0x0 /home/aselsan/Desktop/IMX7/toolchain/gcc-arm-none-eabi-4_9-2015q3/bin/../lib/gcc/arm-none-eabi/4.9.3/../../../../arm-none-eabi/lib/armv7e-m/fpu/libc_nano.a(lib_a-makebuf.o)
 .bss           0x00000000        0x0 /home/aselsan/Desktop/IMX7/toolchain/gcc-arm-none-eabi-4_9-2015q3/bin/../lib/gcc/arm-none-eabi/4.9.3/../../../../arm-none-eabi/lib/armv7e-m/fpu/libc_nano.a(lib_a-makebuf.o)
 .text          0x00000000        0x0 /home/aselsan/Desktop/IMX7/toolchain/gcc-arm-none-eabi-4_9-2015q3/bin/../lib/gcc/arm-none-eabi/4.9.3/../../../../arm-none-eabi/lib/armv7e-m/fpu/libc_nano.a(lib_a-memchr.o)
 .data          0x00000000        0x0 /home/aselsan/Desktop/IMX7/toolchain/gcc-arm-none-eabi-4_9-2015q3/bin/../lib/gcc/arm-none-eabi/4.9.3/../../../../arm-none-eabi/lib/armv7e-m/fpu/libc_nano.a(lib_a-memchr.o)
 .bss           0x00000000        0x0 /home/aselsan/Desktop/IMX7/toolchain/gcc-arm-none-eabi-4_9-2015q3/bin/../lib/gcc/arm-none-eabi/4.9.3/../../../../arm-none-eabi/lib/armv7e-m/fpu/libc_nano.a(lib_a-memchr.o)
 .text          0x00000000        0x0 /home/aselsan/Desktop/IMX7/toolchain/gcc-arm-none-eabi-4_9-2015q3/bin/../lib/gcc/arm-none-eabi/4.9.3/../../../../arm-none-eabi/lib/armv7e-m/fpu/libc_nano.a(lib_a-memmove.o)
 .data          0x00000000        0x0 /home/aselsan/Desktop/IMX7/toolchain/gcc-arm-none-eabi-4_9-2015q3/bin/../lib/gcc/arm-none-eabi/4.9.3/../../../../arm-none-eabi/lib/armv7e-m/fpu/libc_nano.a(lib_a-memmove.o)
 .bss           0x00000000        0x0 /home/aselsan/Desktop/IMX7/toolchain/gcc-arm-none-eabi-4_9-2015q3/bin/../lib/gcc/arm-none-eabi/4.9.3/../../../../arm-none-eabi/lib/armv7e-m/fpu/libc_nano.a(lib_a-memmove.o)
 .text.memmove  0x00000000       0x36 /home/aselsan/Desktop/IMX7/toolchain/gcc-arm-none-eabi-4_9-2015q3/bin/../lib/gcc/arm-none-eabi/4.9.3/../../../../arm-none-eabi/lib/armv7e-m/fpu/libc_nano.a(lib_a-memmove.o)
 .debug_frame   0x00000000       0x28 /home/aselsan/Desktop/IMX7/toolchain/gcc-arm-none-eabi-4_9-2015q3/bin/../lib/gcc/arm-none-eabi/4.9.3/../../../../arm-none-eabi/lib/armv7e-m/fpu/libc_nano.a(lib_a-memmove.o)
 .ARM.attributes
                0x00000000       0x34 /home/aselsan/Desktop/IMX7/toolchain/gcc-arm-none-eabi-4_9-2015q3/bin/../lib/gcc/arm-none-eabi/4.9.3/../../../../arm-none-eabi/lib/armv7e-m/fpu/libc_nano.a(lib_a-memmove.o)
 .text          0x00000000        0x0 /home/aselsan/Desktop/IMX7/toolchain/gcc-arm-none-eabi-4_9-2015q3/bin/../lib/gcc/arm-none-eabi/4.9.3/../../../../arm-none-eabi/lib/armv7e-m/fpu/libc_nano.a(lib_a-nano-freer.o)
 .data          0x00000000        0x0 /home/aselsan/Desktop/IMX7/toolchain/gcc-arm-none-eabi-4_9-2015q3/bin/../lib/gcc/arm-none-eabi/4.9.3/../../../../arm-none-eabi/lib/armv7e-m/fpu/libc_nano.a(lib_a-nano-freer.o)
 .bss           0x00000000        0x0 /home/aselsan/Desktop/IMX7/toolchain/gcc-arm-none-eabi-4_9-2015q3/bin/../lib/gcc/arm-none-eabi/4.9.3/../../../../arm-none-eabi/lib/armv7e-m/fpu/libc_nano.a(lib_a-nano-freer.o)
 .text          0x00000000        0x0 /home/aselsan/Desktop/IMX7/toolchain/gcc-arm-none-eabi-4_9-2015q3/bin/../lib/gcc/arm-none-eabi/4.9.3/../../../../arm-none-eabi/lib/armv7e-m/fpu/libc_nano.a(lib_a-nano-mallocr.o)
 .data          0x00000000        0x0 /home/aselsan/Desktop/IMX7/toolchain/gcc-arm-none-eabi-4_9-2015q3/bin/../lib/gcc/arm-none-eabi/4.9.3/../../../../arm-none-eabi/lib/armv7e-m/fpu/libc_nano.a(lib_a-nano-mallocr.o)
 .bss           0x00000000        0x0 /home/aselsan/Desktop/IMX7/toolchain/gcc-arm-none-eabi-4_9-2015q3/bin/../lib/gcc/arm-none-eabi/4.9.3/../../../../arm-none-eabi/lib/armv7e-m/fpu/libc_nano.a(lib_a-nano-mallocr.o)
 .text          0x00000000        0x0 /home/aselsan/Desktop/IMX7/toolchain/gcc-arm-none-eabi-4_9-2015q3/bin/../lib/gcc/arm-none-eabi/4.9.3/../../../../arm-none-eabi/lib/armv7e-m/fpu/libc_nano.a(lib_a-nano-reallocr.o)
 .data          0x00000000        0x0 /home/aselsan/Desktop/IMX7/toolchain/gcc-arm-none-eabi-4_9-2015q3/bin/../lib/gcc/arm-none-eabi/4.9.3/../../../../arm-none-eabi/lib/armv7e-m/fpu/libc_nano.a(lib_a-nano-reallocr.o)
 .bss           0x00000000        0x0 /home/aselsan/Desktop/IMX7/toolchain/gcc-arm-none-eabi-4_9-2015q3/bin/../lib/gcc/arm-none-eabi/4.9.3/../../../../arm-none-eabi/lib/armv7e-m/fpu/libc_nano.a(lib_a-nano-reallocr.o)
 .text._realloc_r
                0x00000000       0x4c /home/aselsan/Desktop/IMX7/toolchain/gcc-arm-none-eabi-4_9-2015q3/bin/../lib/gcc/arm-none-eabi/4.9.3/../../../../arm-none-eabi/lib/armv7e-m/fpu/libc_nano.a(lib_a-nano-reallocr.o)
 .debug_frame   0x00000000       0x3c /home/aselsan/Desktop/IMX7/toolchain/gcc-arm-none-eabi-4_9-2015q3/bin/../lib/gcc/arm-none-eabi/4.9.3/../../../../arm-none-eabi/lib/armv7e-m/fpu/libc_nano.a(lib_a-nano-reallocr.o)
 .ARM.attributes
                0x00000000       0x34 /home/aselsan/Desktop/IMX7/toolchain/gcc-arm-none-eabi-4_9-2015q3/bin/../lib/gcc/arm-none-eabi/4.9.3/../../../../arm-none-eabi/lib/armv7e-m/fpu/libc_nano.a(lib_a-nano-reallocr.o)
 .text          0x00000000        0x0 /home/aselsan/Desktop/IMX7/toolchain/gcc-arm-none-eabi-4_9-2015q3/bin/../lib/gcc/arm-none-eabi/4.9.3/../../../../arm-none-eabi/lib/armv7e-m/fpu/libc_nano.a(lib_a-sbrkr.o)
 .data          0x00000000        0x0 /home/aselsan/Desktop/IMX7/toolchain/gcc-arm-none-eabi-4_9-2015q3/bin/../lib/gcc/arm-none-eabi/4.9.3/../../../../arm-none-eabi/lib/armv7e-m/fpu/libc_nano.a(lib_a-sbrkr.o)
 .bss           0x00000000        0x0 /home/aselsan/Desktop/IMX7/toolchain/gcc-arm-none-eabi-4_9-2015q3/bin/../lib/gcc/arm-none-eabi/4.9.3/../../../../arm-none-eabi/lib/armv7e-m/fpu/libc_nano.a(lib_a-sbrkr.o)
 .text          0x00000000        0x0 /home/aselsan/Desktop/IMX7/toolchain/gcc-arm-none-eabi-4_9-2015q3/bin/../lib/gcc/arm-none-eabi/4.9.3/../../../../arm-none-eabi/lib/armv7e-m/fpu/libc_nano.a(lib_a-signal.o)
 .data          0x00000000        0x0 /home/aselsan/Desktop/IMX7/toolchain/gcc-arm-none-eabi-4_9-2015q3/bin/../lib/gcc/arm-none-eabi/4.9.3/../../../../arm-none-eabi/lib/armv7e-m/fpu/libc_nano.a(lib_a-signal.o)
 .bss           0x00000000        0x0 /home/aselsan/Desktop/IMX7/toolchain/gcc-arm-none-eabi-4_9-2015q3/bin/../lib/gcc/arm-none-eabi/4.9.3/../../../../arm-none-eabi/lib/armv7e-m/fpu/libc_nano.a(lib_a-signal.o)
 .text._init_signal_r
                0x00000000       0x2c /home/aselsan/Desktop/IMX7/toolchain/gcc-arm-none-eabi-4_9-2015q3/bin/../lib/gcc/arm-none-eabi/4.9.3/../../../../arm-none-eabi/lib/armv7e-m/fpu/libc_nano.a(lib_a-signal.o)
 .text._signal_r
                0x00000000       0x30 /home/aselsan/Desktop/IMX7/toolchain/gcc-arm-none-eabi-4_9-2015q3/bin/../lib/gcc/arm-none-eabi/4.9.3/../../../../arm-none-eabi/lib/armv7e-m/fpu/libc_nano.a(lib_a-signal.o)
 .text.__sigtramp_r
                0x00000000       0x4a /home/aselsan/Desktop/IMX7/toolchain/gcc-arm-none-eabi-4_9-2015q3/bin/../lib/gcc/arm-none-eabi/4.9.3/../../../../arm-none-eabi/lib/armv7e-m/fpu/libc_nano.a(lib_a-signal.o)
 .text.signal   0x00000000       0x14 /home/aselsan/Desktop/IMX7/toolchain/gcc-arm-none-eabi-4_9-2015q3/bin/../lib/gcc/arm-none-eabi/4.9.3/../../../../arm-none-eabi/lib/armv7e-m/fpu/libc_nano.a(lib_a-signal.o)
 .text._init_signal
                0x00000000        0xc /home/aselsan/Desktop/IMX7/toolchain/gcc-arm-none-eabi-4_9-2015q3/bin/../lib/gcc/arm-none-eabi/4.9.3/../../../../arm-none-eabi/lib/armv7e-m/fpu/libc_nano.a(lib_a-signal.o)
 .text.__sigtramp
                0x00000000       0x10 /home/aselsan/Desktop/IMX7/toolchain/gcc-arm-none-eabi-4_9-2015q3/bin/../lib/gcc/arm-none-eabi/4.9.3/../../../../arm-none-eabi/lib/armv7e-m/fpu/libc_nano.a(lib_a-signal.o)
 .text          0x00000000        0x0 /home/aselsan/Desktop/IMX7/toolchain/gcc-arm-none-eabi-4_9-2015q3/bin/../lib/gcc/arm-none-eabi/4.9.3/../../../../arm-none-eabi/lib/armv7e-m/fpu/libc_nano.a(lib_a-signalr.o)
 .data          0x00000000        0x0 /home/aselsan/Desktop/IMX7/toolchain/gcc-arm-none-eabi-4_9-2015q3/bin/../lib/gcc/arm-none-eabi/4.9.3/../../../../arm-none-eabi/lib/armv7e-m/fpu/libc_nano.a(lib_a-signalr.o)
 .bss           0x00000000        0x0 /home/aselsan/Desktop/IMX7/toolchain/gcc-arm-none-eabi-4_9-2015q3/bin/../lib/gcc/arm-none-eabi/4.9.3/../../../../arm-none-eabi/lib/armv7e-m/fpu/libc_nano.a(lib_a-signalr.o)
 .text          0x00000000        0x0 /home/aselsan/Desktop/IMX7/toolchain/gcc-arm-none-eabi-4_9-2015q3/bin/../lib/gcc/arm-none-eabi/4.9.3/../../../../arm-none-eabi/lib/armv7e-m/fpu/libc_nano.a(lib_a-stdio.o)
 .data          0x00000000        0x0 /home/aselsan/Desktop/IMX7/toolchain/gcc-arm-none-eabi-4_9-2015q3/bin/../lib/gcc/arm-none-eabi/4.9.3/../../../../arm-none-eabi/lib/armv7e-m/fpu/libc_nano.a(lib_a-stdio.o)
 .bss           0x00000000        0x0 /home/aselsan/Desktop/IMX7/toolchain/gcc-arm-none-eabi-4_9-2015q3/bin/../lib/gcc/arm-none-eabi/4.9.3/../../../../arm-none-eabi/lib/armv7e-m/fpu/libc_nano.a(lib_a-stdio.o)
 .text.__seofread
                0x00000000        0x4 /home/aselsan/Desktop/IMX7/toolchain/gcc-arm-none-eabi-4_9-2015q3/bin/../lib/gcc/arm-none-eabi/4.9.3/../../../../arm-none-eabi/lib/armv7e-m/fpu/libc_nano.a(lib_a-stdio.o)
 .text          0x00000000        0x0 /home/aselsan/Desktop/IMX7/toolchain/gcc-arm-none-eabi-4_9-2015q3/bin/../lib/gcc/arm-none-eabi/4.9.3/../../../../arm-none-eabi/lib/armv7e-m/fpu/libc_nano.a(lib_a-writer.o)
 .data          0x00000000        0x0 /home/aselsan/Desktop/IMX7/toolchain/gcc-arm-none-eabi-4_9-2015q3/bin/../lib/gcc/arm-none-eabi/4.9.3/../../../../arm-none-eabi/lib/armv7e-m/fpu/libc_nano.a(lib_a-writer.o)
 .bss           0x00000000        0x0 /home/aselsan/Desktop/IMX7/toolchain/gcc-arm-none-eabi-4_9-2015q3/bin/../lib/gcc/arm-none-eabi/4.9.3/../../../../arm-none-eabi/lib/armv7e-m/fpu/libc_nano.a(lib_a-writer.o)
 .text          0x00000000        0x0 /home/aselsan/Desktop/IMX7/toolchain/gcc-arm-none-eabi-4_9-2015q3/bin/../lib/gcc/arm-none-eabi/4.9.3/../../../../arm-none-eabi/lib/armv7e-m/fpu/libc_nano.a(lib_a-closer.o)
 .data          0x00000000        0x0 /home/aselsan/Desktop/IMX7/toolchain/gcc-arm-none-eabi-4_9-2015q3/bin/../lib/gcc/arm-none-eabi/4.9.3/../../../../arm-none-eabi/lib/armv7e-m/fpu/libc_nano.a(lib_a-closer.o)
 .bss           0x00000000        0x0 /home/aselsan/Desktop/IMX7/toolchain/gcc-arm-none-eabi-4_9-2015q3/bin/../lib/gcc/arm-none-eabi/4.9.3/../../../../arm-none-eabi/lib/armv7e-m/fpu/libc_nano.a(lib_a-closer.o)
 .text          0x00000000        0x0 /home/aselsan/Desktop/IMX7/toolchain/gcc-arm-none-eabi-4_9-2015q3/bin/../lib/gcc/arm-none-eabi/4.9.3/../../../../arm-none-eabi/lib/armv7e-m/fpu/libc_nano.a(lib_a-fstatr.o)
 .data          0x00000000        0x0 /home/aselsan/Desktop/IMX7/toolchain/gcc-arm-none-eabi-4_9-2015q3/bin/../lib/gcc/arm-none-eabi/4.9.3/../../../../arm-none-eabi/lib/armv7e-m/fpu/libc_nano.a(lib_a-fstatr.o)
 .bss           0x00000000        0x0 /home/aselsan/Desktop/IMX7/toolchain/gcc-arm-none-eabi-4_9-2015q3/bin/../lib/gcc/arm-none-eabi/4.9.3/../../../../arm-none-eabi/lib/armv7e-m/fpu/libc_nano.a(lib_a-fstatr.o)
 .text          0x00000000        0x0 /home/aselsan/Desktop/IMX7/toolchain/gcc-arm-none-eabi-4_9-2015q3/bin/../lib/gcc/arm-none-eabi/4.9.3/../../../../arm-none-eabi/lib/armv7e-m/fpu/libc_nano.a(lib_a-isattyr.o)
 .data          0x00000000        0x0 /home/aselsan/Desktop/IMX7/toolchain/gcc-arm-none-eabi-4_9-2015q3/bin/../lib/gcc/arm-none-eabi/4.9.3/../../../../arm-none-eabi/lib/armv7e-m/fpu/libc_nano.a(lib_a-isattyr.o)
 .bss           0x00000000        0x0 /home/aselsan/Desktop/IMX7/toolchain/gcc-arm-none-eabi-4_9-2015q3/bin/../lib/gcc/arm-none-eabi/4.9.3/../../../../arm-none-eabi/lib/armv7e-m/fpu/libc_nano.a(lib_a-isattyr.o)
 .text          0x00000000        0x0 /home/aselsan/Desktop/IMX7/toolchain/gcc-arm-none-eabi-4_9-2015q3/bin/../lib/gcc/arm-none-eabi/4.9.3/../../../../arm-none-eabi/lib/armv7e-m/fpu/libc_nano.a(lib_a-lseekr.o)
 .data          0x00000000        0x0 /home/aselsan/Desktop/IMX7/toolchain/gcc-arm-none-eabi-4_9-2015q3/bin/../lib/gcc/arm-none-eabi/4.9.3/../../../../arm-none-eabi/lib/armv7e-m/fpu/libc_nano.a(lib_a-lseekr.o)
 .bss           0x00000000        0x0 /home/aselsan/Desktop/IMX7/toolchain/gcc-arm-none-eabi-4_9-2015q3/bin/../lib/gcc/arm-none-eabi/4.9.3/../../../../arm-none-eabi/lib/armv7e-m/fpu/libc_nano.a(lib_a-lseekr.o)
 .text          0x00000000        0x0 /home/aselsan/Desktop/IMX7/toolchain/gcc-arm-none-eabi-4_9-2015q3/bin/../lib/gcc/arm-none-eabi/4.9.3/../../../../arm-none-eabi/lib/armv7e-m/fpu/libc_nano.a(lib_a-nano-msizer.o)
 .data          0x00000000        0x0 /home/aselsan/Desktop/IMX7/toolchain/gcc-arm-none-eabi-4_9-2015q3/bin/../lib/gcc/arm-none-eabi/4.9.3/../../../../arm-none-eabi/lib/armv7e-m/fpu/libc_nano.a(lib_a-nano-msizer.o)
 .bss           0x00000000        0x0 /home/aselsan/Desktop/IMX7/toolchain/gcc-arm-none-eabi-4_9-2015q3/bin/../lib/gcc/arm-none-eabi/4.9.3/../../../../arm-none-eabi/lib/armv7e-m/fpu/libc_nano.a(lib_a-nano-msizer.o)
 .text._malloc_usable_size_r
                0x00000000       0x14 /home/aselsan/Desktop/IMX7/toolchain/gcc-arm-none-eabi-4_9-2015q3/bin/../lib/gcc/arm-none-eabi/4.9.3/../../../../arm-none-eabi/lib/armv7e-m/fpu/libc_nano.a(lib_a-nano-msizer.o)
 .debug_frame   0x00000000       0x20 /home/aselsan/Desktop/IMX7/toolchain/gcc-arm-none-eabi-4_9-2015q3/bin/../lib/gcc/arm-none-eabi/4.9.3/../../../../arm-none-eabi/lib/armv7e-m/fpu/libc_nano.a(lib_a-nano-msizer.o)
 .ARM.attributes
                0x00000000       0x34 /home/aselsan/Desktop/IMX7/toolchain/gcc-arm-none-eabi-4_9-2015q3/bin/../lib/gcc/arm-none-eabi/4.9.3/../../../../arm-none-eabi/lib/armv7e-m/fpu/libc_nano.a(lib_a-nano-msizer.o)
 .text          0x00000000        0x0 /home/aselsan/Desktop/IMX7/toolchain/gcc-arm-none-eabi-4_9-2015q3/bin/../lib/gcc/arm-none-eabi/4.9.3/../../../../arm-none-eabi/lib/armv7e-m/fpu/libc_nano.a(lib_a-readr.o)
 .data          0x00000000        0x0 /home/aselsan/Desktop/IMX7/toolchain/gcc-arm-none-eabi-4_9-2015q3/bin/../lib/gcc/arm-none-eabi/4.9.3/../../../../arm-none-eabi/lib/armv7e-m/fpu/libc_nano.a(lib_a-readr.o)
 .bss           0x00000000        0x0 /home/aselsan/Desktop/IMX7/toolchain/gcc-arm-none-eabi-4_9-2015q3/bin/../lib/gcc/arm-none-eabi/4.9.3/../../../../arm-none-eabi/lib/armv7e-m/fpu/libc_nano.a(lib_a-readr.o)
 .text          0x00000000        0x0 /home/aselsan/Desktop/IMX7/toolchain/gcc-arm-none-eabi-4_9-2015q3/bin/../lib/gcc/arm-none-eabi/4.9.3/../../../../arm-none-eabi/lib/armv7e-m/fpu/libc_nano.a(lib_a-reent.o)
 .data          0x00000000        0x0 /home/aselsan/Desktop/IMX7/toolchain/gcc-arm-none-eabi-4_9-2015q3/bin/../lib/gcc/arm-none-eabi/4.9.3/../../../../arm-none-eabi/lib/armv7e-m/fpu/libc_nano.a(lib_a-reent.o)
 .bss           0x00000000        0x0 /home/aselsan/Desktop/IMX7/toolchain/gcc-arm-none-eabi-4_9-2015q3/bin/../lib/gcc/arm-none-eabi/4.9.3/../../../../arm-none-eabi/lib/armv7e-m/fpu/libc_nano.a(lib_a-reent.o)
 .text.cleanup_glue
                0x00000000       0x1a /home/aselsan/Desktop/IMX7/toolchain/gcc-arm-none-eabi-4_9-2015q3/bin/../lib/gcc/arm-none-eabi/4.9.3/../../../../arm-none-eabi/lib/armv7e-m/fpu/libc_nano.a(lib_a-reent.o)
 .text._reclaim_reent
                0x00000000       0xb4 /home/aselsan/Desktop/IMX7/toolchain/gcc-arm-none-eabi-4_9-2015q3/bin/../lib/gcc/arm-none-eabi/4.9.3/../../../../arm-none-eabi/lib/armv7e-m/fpu/libc_nano.a(lib_a-reent.o)
 .text          0x00000000        0x0 /home/aselsan/Desktop/IMX7/toolchain/gcc-arm-none-eabi-4_9-2015q3/bin/../lib/gcc/arm-none-eabi/4.9.3/../../../../arm-none-eabi/lib/armv7e-m/fpu/libnosys.a(close.o)
 .data          0x00000000        0x0 /home/aselsan/Desktop/IMX7/toolchain/gcc-arm-none-eabi-4_9-2015q3/bin/../lib/gcc/arm-none-eabi/4.9.3/../../../../arm-none-eabi/lib/armv7e-m/fpu/libnosys.a(close.o)
 .bss           0x00000000        0x0 /home/aselsan/Desktop/IMX7/toolchain/gcc-arm-none-eabi-4_9-2015q3/bin/../lib/gcc/arm-none-eabi/4.9.3/../../../../arm-none-eabi/lib/armv7e-m/fpu/libnosys.a(close.o)
 .text          0x00000000        0x0 /home/aselsan/Desktop/IMX7/toolchain/gcc-arm-none-eabi-4_9-2015q3/bin/../lib/gcc/arm-none-eabi/4.9.3/../../../../arm-none-eabi/lib/armv7e-m/fpu/libnosys.a(fstat.o)
 .data          0x00000000        0x0 /home/aselsan/Desktop/IMX7/toolchain/gcc-arm-none-eabi-4_9-2015q3/bin/../lib/gcc/arm-none-eabi/4.9.3/../../../../arm-none-eabi/lib/armv7e-m/fpu/libnosys.a(fstat.o)
 .bss           0x00000000        0x0 /home/aselsan/Desktop/IMX7/toolchain/gcc-arm-none-eabi-4_9-2015q3/bin/../lib/gcc/arm-none-eabi/4.9.3/../../../../arm-none-eabi/lib/armv7e-m/fpu/libnosys.a(fstat.o)
 .text          0x00000000        0x0 /home/aselsan/Desktop/IMX7/toolchain/gcc-arm-none-eabi-4_9-2015q3/bin/../lib/gcc/arm-none-eabi/4.9.3/../../../../arm-none-eabi/lib/armv7e-m/fpu/libnosys.a(getpid.o)
 .data          0x00000000        0x0 /home/aselsan/Desktop/IMX7/toolchain/gcc-arm-none-eabi-4_9-2015q3/bin/../lib/gcc/arm-none-eabi/4.9.3/../../../../arm-none-eabi/lib/armv7e-m/fpu/libnosys.a(getpid.o)
 .bss           0x00000000        0x0 /home/aselsan/Desktop/IMX7/toolchain/gcc-arm-none-eabi-4_9-2015q3/bin/../lib/gcc/arm-none-eabi/4.9.3/../../../../arm-none-eabi/lib/armv7e-m/fpu/libnosys.a(getpid.o)
 .text          0x00000000        0x0 /home/aselsan/Desktop/IMX7/toolchain/gcc-arm-none-eabi-4_9-2015q3/bin/../lib/gcc/arm-none-eabi/4.9.3/../../../../arm-none-eabi/lib/armv7e-m/fpu/libnosys.a(isatty.o)
 .data          0x00000000        0x0 /home/aselsan/Desktop/IMX7/toolchain/gcc-arm-none-eabi-4_9-2015q3/bin/../lib/gcc/arm-none-eabi/4.9.3/../../../../arm-none-eabi/lib/armv7e-m/fpu/libnosys.a(isatty.o)
 .bss           0x00000000        0x0 /home/aselsan/Desktop/IMX7/toolchain/gcc-arm-none-eabi-4_9-2015q3/bin/../lib/gcc/arm-none-eabi/4.9.3/../../../../arm-none-eabi/lib/armv7e-m/fpu/libnosys.a(isatty.o)
 .text          0x00000000        0x0 /home/aselsan/Desktop/IMX7/toolchain/gcc-arm-none-eabi-4_9-2015q3/bin/../lib/gcc/arm-none-eabi/4.9.3/../../../../arm-none-eabi/lib/armv7e-m/fpu/libnosys.a(kill.o)
 .data          0x00000000        0x0 /home/aselsan/Desktop/IMX7/toolchain/gcc-arm-none-eabi-4_9-2015q3/bin/../lib/gcc/arm-none-eabi/4.9.3/../../../../arm-none-eabi/lib/armv7e-m/fpu/libnosys.a(kill.o)
 .bss           0x00000000        0x0 /home/aselsan/Desktop/IMX7/toolchain/gcc-arm-none-eabi-4_9-2015q3/bin/../lib/gcc/arm-none-eabi/4.9.3/../../../../arm-none-eabi/lib/armv7e-m/fpu/libnosys.a(kill.o)
 .text          0x00000000        0x0 /home/aselsan/Desktop/IMX7/toolchain/gcc-arm-none-eabi-4_9-2015q3/bin/../lib/gcc/arm-none-eabi/4.9.3/../../../../arm-none-eabi/lib/armv7e-m/fpu/libnosys.a(lseek.o)
 .data          0x00000000        0x0 /home/aselsan/Desktop/IMX7/toolchain/gcc-arm-none-eabi-4_9-2015q3/bin/../lib/gcc/arm-none-eabi/4.9.3/../../../../arm-none-eabi/lib/armv7e-m/fpu/libnosys.a(lseek.o)
 .bss           0x00000000        0x0 /home/aselsan/Desktop/IMX7/toolchain/gcc-arm-none-eabi-4_9-2015q3/bin/../lib/gcc/arm-none-eabi/4.9.3/../../../../arm-none-eabi/lib/armv7e-m/fpu/libnosys.a(lseek.o)
 .text          0x00000000        0x0 /home/aselsan/Desktop/IMX7/toolchain/gcc-arm-none-eabi-4_9-2015q3/bin/../lib/gcc/arm-none-eabi/4.9.3/../../../../arm-none-eabi/lib/armv7e-m/fpu/libnosys.a(sbrk.o)
 .data          0x00000000        0x0 /home/aselsan/Desktop/IMX7/toolchain/gcc-arm-none-eabi-4_9-2015q3/bin/../lib/gcc/arm-none-eabi/4.9.3/../../../../arm-none-eabi/lib/armv7e-m/fpu/libnosys.a(sbrk.o)
 .bss           0x00000000        0x0 /home/aselsan/Desktop/IMX7/toolchain/gcc-arm-none-eabi-4_9-2015q3/bin/../lib/gcc/arm-none-eabi/4.9.3/../../../../arm-none-eabi/lib/armv7e-m/fpu/libnosys.a(sbrk.o)
 .text          0x00000000        0x0 /home/aselsan/Desktop/IMX7/toolchain/gcc-arm-none-eabi-4_9-2015q3/bin/../lib/gcc/arm-none-eabi/4.9.3/../../../../arm-none-eabi/lib/armv7e-m/fpu/libnosys.a(_exit.o)
 .data          0x00000000        0x0 /home/aselsan/Desktop/IMX7/toolchain/gcc-arm-none-eabi-4_9-2015q3/bin/../lib/gcc/arm-none-eabi/4.9.3/../../../../arm-none-eabi/lib/armv7e-m/fpu/libnosys.a(_exit.o)
 .bss           0x00000000        0x0 /home/aselsan/Desktop/IMX7/toolchain/gcc-arm-none-eabi-4_9-2015q3/bin/../lib/gcc/arm-none-eabi/4.9.3/../../../../arm-none-eabi/lib/armv7e-m/fpu/libnosys.a(_exit.o)
 .text          0x00000000        0x0 /home/aselsan/Desktop/IMX7/toolchain/gcc-arm-none-eabi-4_9-2015q3/bin/../lib/gcc/arm-none-eabi/4.9.3/armv7e-m/fpu/crtend.o
 .data          0x00000000        0x0 /home/aselsan/Desktop/IMX7/toolchain/gcc-arm-none-eabi-4_9-2015q3/bin/../lib/gcc/arm-none-eabi/4.9.3/armv7e-m/fpu/crtend.o
 .bss           0x00000000        0x0 /home/aselsan/Desktop/IMX7/toolchain/gcc-arm-none-eabi-4_9-2015q3/bin/../lib/gcc/arm-none-eabi/4.9.3/armv7e-m/fpu/crtend.o
 .eh_frame      0x00000000        0x4 /home/aselsan/Desktop/IMX7/toolchain/gcc-arm-none-eabi-4_9-2015q3/bin/../lib/gcc/arm-none-eabi/4.9.3/armv7e-m/fpu/crtend.o
 .text          0x00000000        0x0 /home/aselsan/Desktop/IMX7/toolchain/gcc-arm-none-eabi-4_9-2015q3/bin/../lib/gcc/arm-none-eabi/4.9.3/armv7e-m/fpu/crtn.o
 .data          0x00000000        0x0 /home/aselsan/Desktop/IMX7/toolchain/gcc-arm-none-eabi-4_9-2015q3/bin/../lib/gcc/arm-none-eabi/4.9.3/armv7e-m/fpu/crtn.o
 .bss           0x00000000        0x0 /home/aselsan/Desktop/IMX7/toolchain/gcc-arm-none-eabi-4_9-2015q3/bin/../lib/gcc/arm-none-eabi/4.9.3/armv7e-m/fpu/crtn.o

Memory Configuration

Name             Origin             Length             Attributes
m_interrupts     0x00000000         0x00000240         xr
m_text           0x1fff8000         0x00008000         xr
m_data           0x20000000         0x00008000         rw
*default*        0x00000000         0xffffffff

Linker script and memory map

LOAD /home/aselsan/Desktop/IMX7/toolchain/gcc-arm-none-eabi-4_9-2015q3/bin/../lib/gcc/arm-none-eabi/4.9.3/armv7e-m/fpu/crti.o
LOAD /home/aselsan/Desktop/IMX7/toolchain/gcc-arm-none-eabi-4_9-2015q3/bin/../lib/gcc/arm-none-eabi/4.9.3/armv7e-m/fpu/crtbegin.o
LOAD /home/aselsan/Desktop/IMX7/toolchain/gcc-arm-none-eabi-4_9-2015q3/bin/../lib/gcc/arm-none-eabi/4.9.3/../../../../arm-none-eabi/lib/armv7e-m/fpu/crt0.o
                0x00000400                __stack_size__ = 0x400
                0x00000200                __heap_size__ = 0x200
LOAD CMakeFiles/str_echo_freertos.dir/home/aselsan/Desktop/GPT_BACKUP/freertos-colibri-imx7/platform/drivers/src/sema4.c.obj
LOAD CMakeFiles/str_echo_freertos.dir/home/aselsan/Desktop/GPT_BACKUP/freertos-colibri-imx7/middleware/multicore/open-amp/common/hil/hil.c.obj
LOAD CMakeFiles/str_echo_freertos.dir/home/aselsan/Desktop/GPT_BACKUP/freertos-colibri-imx7/middleware/multicore/open-amp/common/llist/llist.c.obj
LOAD CMakeFiles/str_echo_freertos.dir/home/aselsan/Desktop/GPT_BACKUP/freertos-colibri-imx7/middleware/multicore/open-amp/common/shm/sh_mem.c.obj
LOAD CMakeFiles/str_echo_freertos.dir/home/aselsan/Desktop/GPT_BACKUP/freertos-colibri-imx7/middleware/multicore/open-amp/porting/config/config.c.obj
LOAD CMakeFiles/str_echo_freertos.dir/home/aselsan/Desktop/GPT_BACKUP/freertos-colibri-imx7/middleware/multicore/open-amp/porting/env/freertos/rpmsg_porting.c.obj
LOAD CMakeFiles/str_echo_freertos.dir/home/aselsan/Desktop/GPT_BACKUP/freertos-colibri-imx7/middleware/multicore/open-amp/porting/imx7d_m4/platform.c.obj
LOAD CMakeFiles/str_echo_freertos.dir/home/aselsan/Desktop/GPT_BACKUP/freertos-colibri-imx7/middleware/multicore/open-amp/porting/imx7d_m4/platform_info.c.obj
LOAD CMakeFiles/str_echo_freertos.dir/home/aselsan/Desktop/GPT_BACKUP/freertos-colibri-imx7/middleware/multicore/open-amp/rpmsg/remote_device.c.obj
LOAD CMakeFiles/str_echo_freertos.dir/home/aselsan/Desktop/GPT_BACKUP/freertos-colibri-imx7/middleware/multicore/open-amp/rpmsg/rpmsg.c.obj
LOAD CMakeFiles/str_echo_freertos.dir/home/aselsan/Desktop/GPT_BACKUP/freertos-colibri-imx7/middleware/multicore/open-amp/rpmsg/rpmsg_core.c.obj
LOAD CMakeFiles/str_echo_freertos.dir/home/aselsan/Desktop/GPT_BACKUP/freertos-colibri-imx7/middleware/multicore/open-amp/rpmsg/rpmsg_ext.c.obj
LOAD CMakeFiles/str_echo_freertos.dir/home/aselsan/Desktop/GPT_BACKUP/freertos-colibri-imx7/middleware/multicore/open-amp/rpmsg/rpmsg_rtos.c.obj
LOAD CMakeFiles/str_echo_freertos.dir/home/aselsan/Desktop/GPT_BACKUP/freertos-colibri-imx7/middleware/multicore/open-amp/virtio/virtio.c.obj
LOAD CMakeFiles/str_echo_freertos.dir/home/aselsan/Desktop/GPT_BACKUP/freertos-colibri-imx7/middleware/multicore/open-amp/virtio/virtqueue.c.obj
LOAD CMakeFiles/str_echo_freertos.dir/home/aselsan/Desktop/GPT_BACKUP/freertos-colibri-imx7/platform/devices/MCIMX7D/startup/gcc/startup_MCIMX7D_M4.S.obj
LOAD CMakeFiles/str_echo_freertos.dir/home/aselsan/Desktop/GPT_BACKUP/freertos-colibri-imx7/platform/devices/MCIMX7D/startup/system_MCIMX7D_M4.c.obj
LOAD CMakeFiles/str_echo_freertos.dir/home/aselsan/Desktop/GPT_BACKUP/freertos-colibri-imx7/platform/drivers/src/ccm_analog_imx7d.c.obj
LOAD CMakeFiles/str_echo_freertos.dir/home/aselsan/Desktop/GPT_BACKUP/freertos-colibri-imx7/platform/drivers/src/ccm_imx7d.c.obj
LOAD CMakeFiles/str_echo_freertos.dir/home/aselsan/Desktop/GPT_BACKUP/freertos-colibri-imx7/platform/drivers/src/mu_imx.c.obj
LOAD CMakeFiles/str_echo_freertos.dir/home/aselsan/Desktop/GPT_BACKUP/freertos-colibri-imx7/platform/drivers/src/rdc.c.obj
LOAD CMakeFiles/str_echo_freertos.dir/home/aselsan/Desktop/GPT_BACKUP/freertos-colibri-imx7/platform/drivers/src/rdc_semaphore.c.obj
LOAD CMakeFiles/str_echo_freertos.dir/home/aselsan/Desktop/GPT_BACKUP/freertos-colibri-imx7/platform/drivers/src/uart_imx.c.obj
LOAD CMakeFiles/str_echo_freertos.dir/home/aselsan/Desktop/GPT_BACKUP/freertos-colibri-imx7/platform/drivers/src/wdog_imx.c.obj
LOAD CMakeFiles/str_echo_freertos.dir/home/aselsan/Desktop/GPT_BACKUP/freertos-colibri-imx7/platform/drivers/src/gpt.c.obj
LOAD CMakeFiles/str_echo_freertos.dir/home/aselsan/Desktop/GPT_BACKUP/freertos-colibri-imx7/platform/drivers/src/gpio_imx.c.obj
LOAD CMakeFiles/str_echo_freertos.dir/home/aselsan/Desktop/GPT_BACKUP/freertos-colibri-imx7/platform/utilities/src/debug_console_imx.c.obj
LOAD CMakeFiles/str_echo_freertos.dir/home/aselsan/Desktop/GPT_BACKUP/freertos-colibri-imx7/platform/drivers/src/i2c_imx.c.obj
LOAD CMakeFiles/str_echo_freertos.dir/home/aselsan/Desktop/GPT_BACKUP/freertos-colibri-imx7/platform/utilities/src/print_scan.c.obj
LOAD CMakeFiles/str_echo_freertos.dir/home/aselsan/Desktop/GPT_BACKUP/freertos-colibri-imx7/rtos/FreeRTOS/Source/croutine.c.obj
LOAD CMakeFiles/str_echo_freertos.dir/home/aselsan/Desktop/GPT_BACKUP/freertos-colibri-imx7/rtos/FreeRTOS/Source/event_groups.c.obj
LOAD CMakeFiles/str_echo_freertos.dir/home/aselsan/Desktop/GPT_BACKUP/freertos-colibri-imx7/rtos/FreeRTOS/Source/list.c.obj
LOAD CMakeFiles/str_echo_freertos.dir/home/aselsan/Desktop/GPT_BACKUP/freertos-colibri-imx7/rtos/FreeRTOS/Source/portable/GCC/ARM_CM4F/port.c.obj
LOAD CMakeFiles/str_echo_freertos.dir/home/aselsan/Desktop/GPT_BACKUP/freertos-colibri-imx7/rtos/FreeRTOS/Source/portable/MemMang/heap_2.c.obj
LOAD CMakeFiles/str_echo_freertos.dir/home/aselsan/Desktop/GPT_BACKUP/freertos-colibri-imx7/rtos/FreeRTOS/Source/queue.c.obj
LOAD CMakeFiles/str_echo_freertos.dir/home/aselsan/Desktop/GPT_BACKUP/freertos-colibri-imx7/rtos/FreeRTOS/Source/tasks.c.obj
LOAD CMakeFiles/str_echo_freertos.dir/home/aselsan/Desktop/GPT_BACKUP/freertos-colibri-imx7/rtos/FreeRTOS/Source/timers.c.obj
LOAD CMakeFiles/str_echo_freertos.dir/home/aselsan/Desktop/GPT_BACKUP/freertos-colibri-imx7/examples/imx7_colibri_m4/board.c.obj
LOAD CMakeFiles/str_echo_freertos.dir/home/aselsan/Desktop/GPT_BACKUP/freertos-colibri-imx7/examples/imx7_colibri_m4/gpio_pins.c.obj
LOAD CMakeFiles/str_echo_freertos.dir/home/aselsan/Desktop/GPT_BACKUP/freertos-colibri-imx7/examples/imx7_colibri_m4/clock_freq.c.obj
LOAD CMakeFiles/str_echo_freertos.dir/home/aselsan/Desktop/GPT_BACKUP/freertos-colibri-imx7/examples/imx7_colibri_m4/pin_mux.c.obj
LOAD CMakeFiles/str_echo_freertos.dir/home/aselsan/Desktop/GPT_BACKUP/freertos-colibri-imx7/examples/imx7_colibri_m4/demo_apps/rpmsg/str_echo_freertos/hardware_init.c.obj
LOAD CMakeFiles/str_echo_freertos.dir/home/aselsan/Desktop/GPT_BACKUP/freertos-colibri-imx7/examples/imx7_colibri_m4/demo_apps/rpmsg/str_echo_freertos/str_echo_freertos.c.obj
LOAD CMakeFiles/str_echo_freertos.dir/home/aselsan/Desktop/GPT_BACKUP/freertos-colibri-imx7/examples/imx7_colibri_m4/demo_apps/rpmsg/str_echo_freertos/watchdog.c.obj
LOAD CMakeFiles/str_echo_freertos.dir/home/aselsan/Desktop/GPT_BACKUP/freertos-colibri-imx7/examples/imx7_colibri_m4/demo_apps/rpmsg/str_echo_freertos/timer.c.obj
LOAD CMakeFiles/str_echo_freertos.dir/home/aselsan/Desktop/GPT_BACKUP/freertos-colibri-imx7/examples/imx7_colibri_m4/demo_apps/rpmsg/str_echo_freertos/gpio.c.obj
LOAD CMakeFiles/str_echo_freertos.dir/home/aselsan/Desktop/GPT_BACKUP/freertos-colibri-imx7/examples/imx7_colibri_m4/demo_apps/rpmsg/str_echo_freertos/i2c.c.obj
LOAD CMakeFiles/str_echo_freertos.dir/home/aselsan/Desktop/GPT_BACKUP/freertos-colibri-imx7/examples/imx7_colibri_m4/demo_apps/rpmsg/str_echo_freertos/comm_skb.c.obj
START GROUP
LOAD /home/aselsan/Desktop/IMX7/toolchain/gcc-arm-none-eabi-4_9-2015q3/bin/../lib/gcc/arm-none-eabi/4.9.3/../../../../arm-none-eabi/lib/armv7e-m/fpu/libm.a
LOAD /home/aselsan/Desktop/IMX7/toolchain/gcc-arm-none-eabi-4_9-2015q3/bin/../lib/gcc/arm-none-eabi/4.9.3/../../../../arm-none-eabi/lib/armv7e-m/fpu/libc_nano.a
LOAD /home/aselsan/Desktop/IMX7/toolchain/gcc-arm-none-eabi-4_9-2015q3/bin/../lib/gcc/arm-none-eabi/4.9.3/armv7e-m/fpu/libgcc.a
LOAD /home/aselsan/Desktop/IMX7/toolchain/gcc-arm-none-eabi-4_9-2015q3/bin/../lib/gcc/arm-none-eabi/4.9.3/../../../../arm-none-eabi/lib/armv7e-m/fpu/libnosys.a
END GROUP
START GROUP
LOAD /home/aselsan/Desktop/IMX7/toolchain/gcc-arm-none-eabi-4_9-2015q3/bin/../lib/gcc/arm-none-eabi/4.9.3/armv7e-m/fpu/libgcc.a
LOAD /home/aselsan/Desktop/IMX7/toolchain/gcc-arm-none-eabi-4_9-2015q3/bin/../lib/gcc/arm-none-eabi/4.9.3/../../../../arm-none-eabi/lib/armv7e-m/fpu/libg_nano.a
LOAD /home/aselsan/Desktop/IMX7/toolchain/gcc-arm-none-eabi-4_9-2015q3/bin/../lib/gcc/arm-none-eabi/4.9.3/../../../../arm-none-eabi/lib/armv7e-m/fpu/libc_nano.a
END GROUP
START GROUP
LOAD /home/aselsan/Desktop/IMX7/toolchain/gcc-arm-none-eabi-4_9-2015q3/bin/../lib/gcc/arm-none-eabi/4.9.3/armv7e-m/fpu/libgcc.a
LOAD /home/aselsan/Desktop/IMX7/toolchain/gcc-arm-none-eabi-4_9-2015q3/bin/../lib/gcc/arm-none-eabi/4.9.3/../../../../arm-none-eabi/lib/armv7e-m/fpu/libc_nano.a
LOAD /home/aselsan/Desktop/IMX7/toolchain/gcc-arm-none-eabi-4_9-2015q3/bin/../lib/gcc/arm-none-eabi/4.9.3/../../../../arm-none-eabi/lib/armv7e-m/fpu/libnosys.a
END GROUP
START GROUP
LOAD /home/aselsan/Desktop/IMX7/toolchain/gcc-arm-none-eabi-4_9-2015q3/bin/../lib/gcc/arm-none-eabi/4.9.3/armv7e-m/fpu/libgcc.a
LOAD /home/aselsan/Desktop/IMX7/toolchain/gcc-arm-none-eabi-4_9-2015q3/bin/../lib/gcc/arm-none-eabi/4.9.3/../../../../arm-none-eabi/lib/armv7e-m/fpu/libc_nano.a
LOAD /home/aselsan/Desktop/IMX7/toolchain/gcc-arm-none-eabi-4_9-2015q3/bin/../lib/gcc/arm-none-eabi/4.9.3/../../../../arm-none-eabi/lib/armv7e-m/fpu/libnosys.a
END GROUP
LOAD /home/aselsan/Desktop/IMX7/toolchain/gcc-arm-none-eabi-4_9-2015q3/bin/../lib/gcc/arm-none-eabi/4.9.3/armv7e-m/fpu/crtend.o
LOAD /home/aselsan/Desktop/IMX7/toolchain/gcc-arm-none-eabi-4_9-2015q3/bin/../lib/gcc/arm-none-eabi/4.9.3/armv7e-m/fpu/crtn.o
                0x1fff8000                TCML_code = 0x1fff8000
                0x20000000                TCMU_system = 0x20000000
                0x00000000                OCRAM_S_code = 0x0
                0x00180000                OCRAM_S_system = 0x180000
                0x00900000                OCRAM_code = 0x900000
                0x20200000                OCRAM_system = 0x20200000
                0x00920000                OCRAM_EPDC_code = 0x920000
                0x20220000                OCRAM_EPDC_system = 0x20220000
                0x10000000                DDR_code = 0x10000000
                0x80000000                DDR_system = 0x80000000
                0x00000400                HEAP_SIZE = DEFINED (__heap_size__)?__heap_size__:0x400
                0x00000400                STACK_SIZE = DEFINED (__stack_size__)?__stack_size__:0x400
                0x00000000                __FLASH_START = ORIGIN (m_interrupts)
                0x20000000                __FLASH_END = (ORIGIN (m_text) + 0x8000)

.interrupts     0x00000000      0x240
                0x00000000                __VECTOR_TABLE = .
                0x00000000                . = ALIGN (0x4)
 *(.isr_vector)
 .isr_vector    0x00000000      0x240 CMakeFiles/str_echo_freertos.dir/home/aselsan/Desktop/GPT_BACKUP/freertos-colibri-imx7/platform/devices/MCIMX7D/startup/gcc/startup_MCIMX7D_M4.S.obj
                0x00000000                __isr_vector
                0x00000240                . = ALIGN (0x4)

.text           0x1fff8000     0x7b80
                0x1fff8000                . = ALIGN (0x4)
 *(.text)
 .text          0x1fff8000       0x5c /home/aselsan/Desktop/IMX7/toolchain/gcc-arm-none-eabi-4_9-2015q3/bin/../lib/gcc/arm-none-eabi/4.9.3/armv7e-m/fpu/crtbegin.o
 .text          0x1fff805c       0x74 /home/aselsan/Desktop/IMX7/toolchain/gcc-arm-none-eabi-4_9-2015q3/bin/../lib/gcc/arm-none-eabi/4.9.3/../../../../arm-none-eabi/lib/armv7e-m/fpu/crt0.o
                0x1fff805c                _mainCRTStartup
                0x1fff805c                _start
 .text          0x1fff80d0       0x24 CMakeFiles/str_echo_freertos.dir/home/aselsan/Desktop/GPT_BACKUP/freertos-colibri-imx7/platform/devices/MCIMX7D/startup/gcc/startup_MCIMX7D_M4.S.obj
                0x1fff80d0                Reset_Handler
                0x1fff80f0                ENET2_MAC0_TRANS1_Handler
                0x1fff80f0                SAI3_Handler
                0x1fff80f0                DebugMon_Handler
                0x1fff80f0                USB_OH3_OTG2_1_Handler
                0x1fff80f0                GPIO3_INT31_16_Handler
                0x1fff80f0                eCSPI4_Handler
                0x1fff80f0                SIM2_Handler
                0x1fff80f0                FLEXCAN1_Handler
                0x1fff80f0                UART3_Handler
                0x1fff80f0                UART2_Handler
                0x1fff80f0                GPIO1_INT3_Handler
                0x1fff80f0                HardFault_Handler
                0x1fff80f0                SNVS_SECURITY_Handler
                0x1fff80f0                SEMA4_HS_M4_Handler
                0x1fff80f0                GPIO6_INT31_16_Handler
                0x1fff80f0                SRC_Handler
                0x1fff80f0                GPT2_Handler
                0x1fff80f0                CCM2_Handler
                0x1fff80f0                I2C1_Handler
                0x1fff80f0                CPU_CTI_Handler
                0x1fff80f0                NMI_Handler
                0x1fff80f0                SAI1_Handler
                0x1fff80f0                ENET2_MAC0_IRQ_Handler
                0x1fff80f0                KPP_Handler
                0x1fff80f0                USB_OTG1_Handler
                0x1fff80f0                MIPI_CSI_Handler
                0x1fff80f0                WDOG4_Handler
                0x1fff80f0                Reserved9_Handler
                0x1fff80f0                QSPI_Handler
                0x1fff80f0                CAAM_QUEUE_Handler
                0x1fff80f0                GPIO2_INT15_0_Handler
                0x1fff80f0                PCIE_CTRL4_Handler
                0x1fff80f0                uSDHC2_Handler
                0x1fff80f0                GPIO1_INT6_Handler
                0x1fff80f0                PCIE_CTRL_REQUEST_Handler
                0x1fff80f0                SCTR1_Handler
                0x1fff80f0                RDC_Handler
                0x1fff80f0                EPDC_Handler
                0x1fff80f0                CCM1_Handler
                0x1fff80f0                UsageFault_Handler
                0x1fff80f0                ADC1_Handler
                0x1fff80f0                GPIO1_INT0_Handler
                0x1fff80f0                Analog_brown_out_Handler
                0x1fff80f0                PXP2_Handler
                0x1fff80f0                SEMA4_HS_A7_Handler
                0x1fff80f0                RTIC_Handler
                0x1fff80f0                DefaultISR
                0x1fff80f0                GPIO6_INT15_0_Handler
                0x1fff80f0                SCTR2_Handler
                0x1fff80f0                WDOG3_Handler
                0x1fff80f0                USB_OH2_OTG_Handler
                0x1fff80f0                SAI2_Handler
                0x1fff80f0                GPIO3_INT15_0_Handler
                0x1fff80f0                FTM2_Handler
                0x1fff80f0                eCSPI1_Handler
                0x1fff80f0                GPC_Handler
                0x1fff80f0                GPIO1_INT15_0_Handler
                0x1fff80f0                UART1_Handler
                0x1fff80f0                ENET1_MAC0_TRANS2_Handler
                0x1fff80f0                eCSPI3_Handler
                0x1fff80f0                BCH_Handler
                0x1fff80f0                CAAM_ERROR_Handler
                0x1fff80f0                Analog_TempSensor_Handler
                0x1fff80f0                PXP1_Handler
                0x1fff80f0                SNVS_Handler
                0x1fff80f0                GPT4_Handler
                0x1fff80f0                GPIO5_INT15_0_Handler
                0x1fff80f0                ENET2_MAC0_TRANS2_Handler
                0x1fff80f0                GPMI_Handler
                0x1fff80f0                I2C4_Handler
                0x1fff80f0                CCM_SRC_GPC_Handler
                0x1fff80f0                CPU_Handler
                0x1fff80f0                UART4_Handler
                0x1fff80f0                GPIO1_INT1_Handler
                0x1fff80f0                uSDHC3_Handler
                0x1fff80f0                EIM_Handler
                0x1fff80f0                PWM1_Handler
                0x1fff80f0                ENET2_1588_TIMER_IRQ_Handler
                0x1fff80f0                UART6_Handler
                0x1fff80f0                GPIO1_INT4_Handler
                0x1fff80f0                GPIO1_INT31_16_Handler
                0x1fff80f0                APBHDMA_Handler
                0x1fff80f0                uSDHC1_Handler
                0x1fff80f0                DBGMON_Handler
                0x1fff80f0                UART7_Handler
                0x1fff80f0                SDMA_Handler
                0x1fff80f0                GPT1_Handler
                0x1fff80f0                PWM3_Handler
                0x1fff80f0                PCIE_CTRL2_Handler
                0x1fff80f0                MemManage_Handler
                0x1fff80f0                GPIO5_INT31_16_Handler
                0x1fff80f0                TZASC1_Handler
                0x1fff80f0                I2C2_Handler
                0x1fff80f0                DAP_Handler
                0x1fff80f0                GPIO4_INT15_0_Handler
                0x1fff80f0                CSI_Handler
                0x1fff80f0                eCSPI2_Handler
                0x1fff80f0                ENET1_1588_TIMER_Handler
                0x1fff80f0                WDOG2_Handler
                0x1fff80f0                FLEXCAN2_Handler
                0x1fff80f0                PCIE_CTRL1_Handler
                0x1fff80f0                PCIE_CTRL3_Handler
                0x1fff80f0                GPIO1_INT5_Handler
                0x1fff80f0                CAAM_WRAPPER2_Handler
                0x1fff80f0                SNVS_CONSOLIDATED_Handler
                0x1fff80f0                CAAM_WRAPPER1_Handler
                0x1fff80f0                GPIO4_INT31_16_Handler
                0x1fff80f0                GPIO1_INT2_Handler
                0x1fff80f0                LCDIF_Handler
                0x1fff80f0                UART5_Handler
                0x1fff80f0                PERFMON1_Handler
                0x1fff80f0                GPIO1_INT7_Handler
                0x1fff80f0                I2C3_Handler
                0x1fff80f0                CSU_Handler
                0x1fff80f0                MIPI_DSI_Handler
                0x1fff80f0                PWM2_Handler
                0x1fff80f0                GPR_Handler
                0x1fff80f0                SIM1_Handler
                0x1fff80f0                USB_OTG2_Handler
                0x1fff80f0                ENET1_MAC0_TRANS1_Handler
                0x1fff80f0                BusFault_Handler
                0x1fff80f0                USB_OH3_OTG2_2_Handler
                0x1fff80f0                ENET1_MAC0_Handler
                0x1fff80f0                PERFMON2_Handler
                0x1fff80f0                GPIO7_INT31_16_Handler
                0x1fff80f0                PWM4_Handler
                0x1fff80f0                GPIO2_INT31_16_Handler
                0x1fff80f0                FTM1_Handler
                0x1fff80f0                GPIO7_INT15_0_Handler
                0x1fff80f0                WDOG1_Handler
                0x1fff80f0                MU_A7_Handler
                0x1fff80f0                ADC2_Handler
                0x1fff80f0                TPR_Handler
 *(.text*)
 .text.hil_create_proc
                0x1fff80f4       0x6c CMakeFiles/str_echo_freertos.dir/home/aselsan/Desktop/GPT_BACKUP/freertos-colibri-imx7/middleware/multicore/open-amp/common/hil/hil.c.obj
                0x1fff80f4                hil_create_proc
 .text.hil_isr  0x1fff8160        0xc CMakeFiles/str_echo_freertos.dir/home/aselsan/Desktop/GPT_BACKUP/freertos-colibri-imx7/middleware/multicore/open-amp/common/hil/hil.c.obj
                0x1fff8160                hil_isr
 .text.hil_get_chnl_info
                0x1fff816c        0x8 CMakeFiles/str_echo_freertos.dir/home/aselsan/Desktop/GPT_BACKUP/freertos-colibri-imx7/middleware/multicore/open-amp/common/hil/hil.c.obj
                0x1fff816c                hil_get_chnl_info
 .text.hil_get_vring_info
                0x1fff8174        0x8 CMakeFiles/str_echo_freertos.dir/home/aselsan/Desktop/GPT_BACKUP/freertos-colibri-imx7/middleware/multicore/open-amp/common/hil/hil.c.obj
                0x1fff8174                hil_get_vring_info
 .text.hil_get_shm_info
                0x1fff817c        0x4 CMakeFiles/str_echo_freertos.dir/home/aselsan/Desktop/GPT_BACKUP/freertos-colibri-imx7/middleware/multicore/open-amp/common/hil/hil.c.obj
                0x1fff817c                hil_get_shm_info
 .text.hil_enable_vring_notifications
                0x1fff8180       0x20 CMakeFiles/str_echo_freertos.dir/home/aselsan/Desktop/GPT_BACKUP/freertos-colibri-imx7/middleware/multicore/open-amp/common/hil/hil.c.obj
                0x1fff8180                hil_enable_vring_notifications
 .text.hil_vring_notify
                0x1fff81a0       0x1c CMakeFiles/str_echo_freertos.dir/home/aselsan/Desktop/GPT_BACKUP/freertos-colibri-imx7/middleware/multicore/open-amp/common/hil/hil.c.obj
                0x1fff81a0                hil_vring_notify
 .text.hil_get_status
                0x1fff81bc        0x4 CMakeFiles/str_echo_freertos.dir/home/aselsan/Desktop/GPT_BACKUP/freertos-colibri-imx7/middleware/multicore/open-amp/common/hil/hil.c.obj
                0x1fff81bc                hil_get_status
 .text.hil_set_status
                0x1fff81c0        0x4 CMakeFiles/str_echo_freertos.dir/home/aselsan/Desktop/GPT_BACKUP/freertos-colibri-imx7/middleware/multicore/open-amp/common/hil/hil.c.obj
                0x1fff81c0                hil_set_status
 .text.add_to_list
                0x1fff81c4       0x20 CMakeFiles/str_echo_freertos.dir/home/aselsan/Desktop/GPT_BACKUP/freertos-colibri-imx7/middleware/multicore/open-amp/common/llist/llist.c.obj
                0x1fff81c4                add_to_list
 .text.remove_from_list
                0x1fff81e4       0x28 CMakeFiles/str_echo_freertos.dir/home/aselsan/Desktop/GPT_BACKUP/freertos-colibri-imx7/middleware/multicore/open-amp/common/llist/llist.c.obj
                0x1fff81e4                remove_from_list
 .text.sh_mem_create_pool
                0x1fff820c       0x94 CMakeFiles/str_echo_freertos.dir/home/aselsan/Desktop/GPT_BACKUP/freertos-colibri-imx7/middleware/multicore/open-amp/common/shm/sh_mem.c.obj
                0x1fff820c                sh_mem_create_pool
 .text.sh_mem_free_buffer
                0x1fff82a0       0x58 CMakeFiles/str_echo_freertos.dir/home/aselsan/Desktop/GPT_BACKUP/freertos-colibri-imx7/middleware/multicore/open-amp/common/shm/sh_mem.c.obj
                0x1fff82a0                sh_mem_free_buffer
 .text.sh_mem_delete_pool
                0x1fff82f8       0x18 CMakeFiles/str_echo_freertos.dir/home/aselsan/Desktop/GPT_BACKUP/freertos-colibri-imx7/middleware/multicore/open-amp/common/shm/sh_mem.c.obj
                0x1fff82f8                sh_mem_delete_pool
 .text.get_first_zero_bit
                0x1fff8310       0x50 CMakeFiles/str_echo_freertos.dir/home/aselsan/Desktop/GPT_BACKUP/freertos-colibri-imx7/middleware/multicore/open-amp/common/shm/sh_mem.c.obj
                0x1fff8310                get_first_zero_bit
 .text.sh_mem_get_buffer
                0x1fff8360       0x68 CMakeFiles/str_echo_freertos.dir/home/aselsan/Desktop/GPT_BACKUP/freertos-colibri-imx7/middleware/multicore/open-amp/common/shm/sh_mem.c.obj
                0x1fff8360                sh_mem_get_buffer
 .text.env_in_isr
                0x1fff83c8        0x8 CMakeFiles/str_echo_freertos.dir/home/aselsan/Desktop/GPT_BACKUP/freertos-colibri-imx7/middleware/multicore/open-amp/porting/env/freertos/rpmsg_porting.c.obj
                0x1fff83c8                env_in_isr
 .text.env_init
                0x1fff83d0       0x54 CMakeFiles/str_echo_freertos.dir/home/aselsan/Desktop/GPT_BACKUP/freertos-colibri-imx7/middleware/multicore/open-amp/porting/env/freertos/rpmsg_porting.c.obj
                0x1fff83d0                env_init
 .text.env_deinit
                0x1fff8424       0x54 CMakeFiles/str_echo_freertos.dir/home/aselsan/Desktop/GPT_BACKUP/freertos-colibri-imx7/middleware/multicore/open-amp/porting/env/freertos/rpmsg_porting.c.obj
                0x1fff8424                env_deinit
 .text.env_allocate_memory
                0x1fff8478        0x8 CMakeFiles/str_echo_freertos.dir/home/aselsan/Desktop/GPT_BACKUP/freertos-colibri-imx7/middleware/multicore/open-amp/porting/env/freertos/rpmsg_porting.c.obj
                0x1fff8478                env_allocate_memory
 .text.env_free_memory
                0x1fff8480        0x8 CMakeFiles/str_echo_freertos.dir/home/aselsan/Desktop/GPT_BACKUP/freertos-colibri-imx7/middleware/multicore/open-amp/porting/env/freertos/rpmsg_porting.c.obj
                0x1fff8480                env_free_memory
 .text.env_memset
                0x1fff8488        0x8 CMakeFiles/str_echo_freertos.dir/home/aselsan/Desktop/GPT_BACKUP/freertos-colibri-imx7/middleware/multicore/open-amp/porting/env/freertos/rpmsg_porting.c.obj
                0x1fff8488                env_memset
 .text.env_memcpy
                0x1fff8490        0x8 CMakeFiles/str_echo_freertos.dir/home/aselsan/Desktop/GPT_BACKUP/freertos-colibri-imx7/middleware/multicore/open-amp/porting/env/freertos/rpmsg_porting.c.obj
                0x1fff8490                env_memcpy
 .text.env_strncpy
                0x1fff8498        0x8 CMakeFiles/str_echo_freertos.dir/home/aselsan/Desktop/GPT_BACKUP/freertos-colibri-imx7/middleware/multicore/open-amp/porting/env/freertos/rpmsg_porting.c.obj
                0x1fff8498                env_strncpy
 .text.env_strncmp
                0x1fff84a0        0x8 CMakeFiles/str_echo_freertos.dir/home/aselsan/Desktop/GPT_BACKUP/freertos-colibri-imx7/middleware/multicore/open-amp/porting/env/freertos/rpmsg_porting.c.obj
                0x1fff84a0                env_strncmp
 .text.env_mb   0x1fff84a8        0x4 CMakeFiles/str_echo_freertos.dir/home/aselsan/Desktop/GPT_BACKUP/freertos-colibri-imx7/middleware/multicore/open-amp/porting/env/freertos/rpmsg_porting.c.obj
                0x1fff84a8                env_mb
 .text.env_rmb  0x1fff84ac        0x4 CMakeFiles/str_echo_freertos.dir/home/aselsan/Desktop/GPT_BACKUP/freertos-colibri-imx7/middleware/multicore/open-amp/porting/env/freertos/rpmsg_porting.c.obj
                0x1fff84ac                env_rmb
 .text.env_wmb  0x1fff84b0        0x4 CMakeFiles/str_echo_freertos.dir/home/aselsan/Desktop/GPT_BACKUP/freertos-colibri-imx7/middleware/multicore/open-amp/porting/env/freertos/rpmsg_porting.c.obj
                0x1fff84b0                env_wmb
 .text.env_map_vatopa
                0x1fff84b4        0x8 CMakeFiles/str_echo_freertos.dir/home/aselsan/Desktop/GPT_BACKUP/freertos-colibri-imx7/middleware/multicore/open-amp/porting/env/freertos/rpmsg_porting.c.obj
                0x1fff84b4                env_map_vatopa
 .text.env_map_patova
                0x1fff84bc        0x8 CMakeFiles/str_echo_freertos.dir/home/aselsan/Desktop/GPT_BACKUP/freertos-colibri-imx7/middleware/multicore/open-amp/porting/env/freertos/rpmsg_porting.c.obj
                0x1fff84bc                env_map_patova
 .text.env_create_mutex
                0x1fff84c4       0x18 CMakeFiles/str_echo_freertos.dir/home/aselsan/Desktop/GPT_BACKUP/freertos-colibri-imx7/middleware/multicore/open-amp/porting/env/freertos/rpmsg_porting.c.obj
                0x1fff84c4                env_create_mutex
 .text.env_delete_mutex
                0x1fff84dc        0x8 CMakeFiles/str_echo_freertos.dir/home/aselsan/Desktop/GPT_BACKUP/freertos-colibri-imx7/middleware/multicore/open-amp/porting/env/freertos/rpmsg_porting.c.obj
                0x1fff84dc                env_delete_mutex
 .text.env_lock_mutex
                0x1fff84e4       0x20 CMakeFiles/str_echo_freertos.dir/home/aselsan/Desktop/GPT_BACKUP/freertos-colibri-imx7/middleware/multicore/open-amp/porting/env/freertos/rpmsg_porting.c.obj
                0x1fff84e4                env_lock_mutex
 .text.env_unlock_mutex
                0x1fff8504       0x1c CMakeFiles/str_echo_freertos.dir/home/aselsan/Desktop/GPT_BACKUP/freertos-colibri-imx7/middleware/multicore/open-amp/porting/env/freertos/rpmsg_porting.c.obj
                0x1fff8504                env_unlock_mutex
 .text.env_create_sync_lock
                0x1fff8520        0x8 CMakeFiles/str_echo_freertos.dir/home/aselsan/Desktop/GPT_BACKUP/freertos-colibri-imx7/middleware/multicore/open-amp/porting/env/freertos/rpmsg_porting.c.obj
                0x1fff8520                env_create_sync_lock
 .text.env_delete_sync_lock
                0x1fff8528        0xc CMakeFiles/str_echo_freertos.dir/home/aselsan/Desktop/GPT_BACKUP/freertos-colibri-imx7/middleware/multicore/open-amp/porting/env/freertos/rpmsg_porting.c.obj
                0x1fff8528                env_delete_sync_lock
 .text.env_acquire_sync_lock
                0x1fff8534       0x48 CMakeFiles/str_echo_freertos.dir/home/aselsan/Desktop/GPT_BACKUP/freertos-colibri-imx7/middleware/multicore/open-amp/porting/env/freertos/rpmsg_porting.c.obj
                0x1fff8534                env_acquire_sync_lock
 .text.env_release_sync_lock
                0x1fff857c       0x44 CMakeFiles/str_echo_freertos.dir/home/aselsan/Desktop/GPT_BACKUP/freertos-colibri-imx7/middleware/multicore/open-amp/porting/env/freertos/rpmsg_porting.c.obj
                0x1fff857c                env_release_sync_lock
 .text.env_sleep_msec
                0x1fff85c0        0x8 CMakeFiles/str_echo_freertos.dir/home/aselsan/Desktop/GPT_BACKUP/freertos-colibri-imx7/middleware/multicore/open-amp/porting/env/freertos/rpmsg_porting.c.obj
                0x1fff85c0                env_sleep_msec
 .text.env_register_isr
                0x1fff85c8       0x38 CMakeFiles/str_echo_freertos.dir/home/aselsan/Desktop/GPT_BACKUP/freertos-colibri-imx7/middleware/multicore/open-amp/porting/env/freertos/rpmsg_porting.c.obj
                0x1fff85c8                env_register_isr
 .text.env_enable_interrupt
                0x1fff8600       0x44 CMakeFiles/str_echo_freertos.dir/home/aselsan/Desktop/GPT_BACKUP/freertos-colibri-imx7/middleware/multicore/open-amp/porting/env/freertos/rpmsg_porting.c.obj
                0x1fff8600                env_enable_interrupt
 .text.env_disable_interrupt
                0x1fff8644        0x8 CMakeFiles/str_echo_freertos.dir/home/aselsan/Desktop/GPT_BACKUP/freertos-colibri-imx7/middleware/multicore/open-amp/porting/env/freertos/rpmsg_porting.c.obj
                0x1fff8644                env_disable_interrupt
 .text.env_map_memory
                0x1fff864c       0x10 CMakeFiles/str_echo_freertos.dir/home/aselsan/Desktop/GPT_BACKUP/freertos-colibri-imx7/middleware/multicore/open-amp/porting/env/freertos/rpmsg_porting.c.obj
                0x1fff864c                env_map_memory
 .text.env_isr  0x1fff865c       0x70 CMakeFiles/str_echo_freertos.dir/home/aselsan/Desktop/GPT_BACKUP/freertos-colibri-imx7/middleware/multicore/open-amp/porting/env/freertos/rpmsg_porting.c.obj
                0x1fff865c                env_isr
 .text.env_create_queue
                0x1fff86cc       0x1c CMakeFiles/str_echo_freertos.dir/home/aselsan/Desktop/GPT_BACKUP/freertos-colibri-imx7/middleware/multicore/open-amp/porting/env/freertos/rpmsg_porting.c.obj
                0x1fff86cc                env_create_queue
 .text.env_put_queue
                0x1fff86e8       0x6c CMakeFiles/str_echo_freertos.dir/home/aselsan/Desktop/GPT_BACKUP/freertos-colibri-imx7/middleware/multicore/open-amp/porting/env/freertos/rpmsg_porting.c.obj
                0x1fff86e8                env_put_queue
 .text.env_get_queue
                0x1fff8754       0x68 CMakeFiles/str_echo_freertos.dir/home/aselsan/Desktop/GPT_BACKUP/freertos-colibri-imx7/middleware/multicore/open-amp/porting/env/freertos/rpmsg_porting.c.obj
                0x1fff8754                env_get_queue
 .text._shutdown_cpu
                0x1fff87bc       0x1c CMakeFiles/str_echo_freertos.dir/home/aselsan/Desktop/GPT_BACKUP/freertos-colibri-imx7/middleware/multicore/open-amp/porting/imx7d_m4/platform.c.obj
 .text._boot_cpu
                0x1fff87d8       0x1c CMakeFiles/str_echo_freertos.dir/home/aselsan/Desktop/GPT_BACKUP/freertos-colibri-imx7/middleware/multicore/open-amp/porting/imx7d_m4/platform.c.obj
 .text._notify  0x1fff87f4       0x14 CMakeFiles/str_echo_freertos.dir/home/aselsan/Desktop/GPT_BACKUP/freertos-colibri-imx7/middleware/multicore/open-amp/porting/imx7d_m4/platform.c.obj
 .text._enable_interrupt
                0x1fff8808       0x28 CMakeFiles/str_echo_freertos.dir/home/aselsan/Desktop/GPT_BACKUP/freertos-colibri-imx7/middleware/multicore/open-amp/porting/imx7d_m4/platform.c.obj
 .text.platform_isr
                0x1fff8830        0xc CMakeFiles/str_echo_freertos.dir/home/aselsan/Desktop/GPT_BACKUP/freertos-colibri-imx7/middleware/multicore/open-amp/porting/imx7d_m4/platform.c.obj
                0x1fff8830                platform_isr
 .text.rpmsg_handler
                0x1fff883c       0x24 CMakeFiles/str_echo_freertos.dir/home/aselsan/Desktop/GPT_BACKUP/freertos-colibri-imx7/middleware/multicore/open-amp/porting/imx7d_m4/platform.c.obj
                0x1fff883c                rpmsg_handler
 .text.platform_in_isr
                0x1fff8860       0x14 CMakeFiles/str_echo_freertos.dir/home/aselsan/Desktop/GPT_BACKUP/freertos-colibri-imx7/middleware/multicore/open-amp/porting/imx7d_m4/platform.c.obj
                0x1fff8860                platform_in_isr
 .text.platform_interrupt_enable
                0x1fff8874       0x64 CMakeFiles/str_echo_freertos.dir/home/aselsan/Desktop/GPT_BACKUP/freertos-colibri-imx7/middleware/multicore/open-amp/porting/imx7d_m4/platform.c.obj
                0x1fff8874                platform_interrupt_enable
 .text.platform_interrupt_disable
                0x1fff88d8       0x6c CMakeFiles/str_echo_freertos.dir/home/aselsan/Desktop/GPT_BACKUP/freertos-colibri-imx7/middleware/multicore/open-amp/porting/imx7d_m4/platform.c.obj
                0x1fff88d8                platform_interrupt_disable
 .text.platform_interrupt_enable_all
                0x1fff8944       0x3c CMakeFiles/str_echo_freertos.dir/home/aselsan/Desktop/GPT_BACKUP/freertos-colibri-imx7/middleware/multicore/open-amp/porting/imx7d_m4/platform.c.obj
                0x1fff8944                platform_interrupt_enable_all
 .text.platform_interrupt_disable_all
                0x1fff8980       0x38 CMakeFiles/str_echo_freertos.dir/home/aselsan/Desktop/GPT_BACKUP/freertos-colibri-imx7/middleware/multicore/open-amp/porting/imx7d_m4/platform.c.obj
                0x1fff8980                platform_interrupt_disable_all
 .text.platform_map_mem_region
                0x1fff89b8        0x4 CMakeFiles/str_echo_freertos.dir/home/aselsan/Desktop/GPT_BACKUP/freertos-colibri-imx7/middleware/multicore/open-amp/porting/imx7d_m4/platform.c.obj
                0x1fff89b8                platform_map_mem_region
 .text.platform_vatopa
                0x1fff89bc        0x4 CMakeFiles/str_echo_freertos.dir/home/aselsan/Desktop/GPT_BACKUP/freertos-colibri-imx7/middleware/multicore/open-amp/porting/imx7d_m4/platform.c.obj
                0x1fff89bc                platform_vatopa
 .text.platform_patova
                0x1fff89c0        0x4 CMakeFiles/str_echo_freertos.dir/home/aselsan/Desktop/GPT_BACKUP/freertos-colibri-imx7/middleware/multicore/open-amp/porting/imx7d_m4/platform.c.obj
                0x1fff89c0                platform_patova
 .text.platform_init
                0x1fff89c4        0x4 CMakeFiles/str_echo_freertos.dir/home/aselsan/Desktop/GPT_BACKUP/freertos-colibri-imx7/middleware/multicore/open-amp/porting/imx7d_m4/platform.c.obj
                0x1fff89c4                platform_init
 .text.platform_deinit
                0x1fff89c8        0x4 CMakeFiles/str_echo_freertos.dir/home/aselsan/Desktop/GPT_BACKUP/freertos-colibri-imx7/middleware/multicore/open-amp/porting/imx7d_m4/platform.c.obj
                0x1fff89c8                platform_deinit
 .text.platform_get_processor_info
                0x1fff89cc       0x40 CMakeFiles/str_echo_freertos.dir/home/aselsan/Desktop/GPT_BACKUP/freertos-colibri-imx7/middleware/multicore/open-amp/porting/imx7d_m4/platform_info.c.obj
                0x1fff89cc                platform_get_processor_info
 .text.rpmsg_rdev_get_status
                0x1fff8a0c        0x4 CMakeFiles/str_echo_freertos.dir/home/aselsan/Desktop/GPT_BACKUP/freertos-colibri-imx7/middleware/multicore/open-amp/rpmsg/remote_device.c.obj
                0x1fff8a0c                rpmsg_rdev_get_status
 .text.rpmsg_rdev_set_status
                0x1fff8a10        0x4 CMakeFiles/str_echo_freertos.dir/home/aselsan/Desktop/GPT_BACKUP/freertos-colibri-imx7/middleware/multicore/open-amp/rpmsg/remote_device.c.obj
                0x1fff8a10                rpmsg_rdev_set_status
 .text.rpmsg_rdev_get_feature
                0x1fff8a14        0x4 CMakeFiles/str_echo_freertos.dir/home/aselsan/Desktop/GPT_BACKUP/freertos-colibri-imx7/middleware/multicore/open-amp/rpmsg/remote_device.c.obj
                0x1fff8a14                rpmsg_rdev_get_feature
 .text.rpmsg_rdev_set_feature
                0x1fff8a18        0x8 CMakeFiles/str_echo_freertos.dir/home/aselsan/Desktop/GPT_BACKUP/freertos-colibri-imx7/middleware/multicore/open-amp/rpmsg/remote_device.c.obj
                0x1fff8a18                rpmsg_rdev_set_feature
 .text.rpmsg_rdev_negotiate_feature
                0x1fff8a20        0x4 CMakeFiles/str_echo_freertos.dir/home/aselsan/Desktop/GPT_BACKUP/freertos-colibri-imx7/middleware/multicore/open-amp/rpmsg/remote_device.c.obj
                0x1fff8a20                rpmsg_rdev_negotiate_feature
 .text.rpmsg_rdev_read_config
                0x1fff8a24        0x4 CMakeFiles/str_echo_freertos.dir/home/aselsan/Desktop/GPT_BACKUP/freertos-colibri-imx7/middleware/multicore/open-amp/rpmsg/remote_device.c.obj
                0x1fff8a24                rpmsg_rdev_read_config
 .text.rpmsg_rdev_write_config
                0x1fff8a28        0x4 CMakeFiles/str_echo_freertos.dir/home/aselsan/Desktop/GPT_BACKUP/freertos-colibri-imx7/middleware/multicore/open-amp/rpmsg/remote_device.c.obj
                0x1fff8a28                rpmsg_rdev_write_config
 .text.rpmsg_rdev_reset
                0x1fff8a2c        0x4 CMakeFiles/str_echo_freertos.dir/home/aselsan/Desktop/GPT_BACKUP/freertos-colibri-imx7/middleware/multicore/open-amp/rpmsg/remote_device.c.obj
                0x1fff8a2c                rpmsg_rdev_reset
 .text.rpmsg_rdev_init_channels
                0x1fff8a30       0x60 CMakeFiles/str_echo_freertos.dir/home/aselsan/Desktop/GPT_BACKUP/freertos-colibri-imx7/middleware/multicore/open-amp/rpmsg/remote_device.c.obj
 .text.rpmsg_rdev_create_virtqueues
                0x1fff8a90      0x110 CMakeFiles/str_echo_freertos.dir/home/aselsan/Desktop/GPT_BACKUP/freertos-colibri-imx7/middleware/multicore/open-amp/rpmsg/remote_device.c.obj
                0x1fff8a90                rpmsg_rdev_create_virtqueues
 .text.rpmsg_rdev_init
                0x1fff8ba0       0xa8 CMakeFiles/str_echo_freertos.dir/home/aselsan/Desktop/GPT_BACKUP/freertos-colibri-imx7/middleware/multicore/open-amp/rpmsg/remote_device.c.obj
                0x1fff8ba0                rpmsg_rdev_init
 .text.rpmsg_rdev_get_chnl_node_from_id
                0x1fff8c48       0x38 CMakeFiles/str_echo_freertos.dir/home/aselsan/Desktop/GPT_BACKUP/freertos-colibri-imx7/middleware/multicore/open-amp/rpmsg/remote_device.c.obj
                0x1fff8c48                rpmsg_rdev_get_chnl_node_from_id
 .text.rpmsg_rdev_get_endpoint_from_addr
                0x1fff8c80       0x34 CMakeFiles/str_echo_freertos.dir/home/aselsan/Desktop/GPT_BACKUP/freertos-colibri-imx7/middleware/multicore/open-amp/rpmsg/remote_device.c.obj
                0x1fff8c80                rpmsg_rdev_get_endpoint_from_addr
 .text.rpmsg_rdev_deinit
                0x1fff8cb4       0x78 CMakeFiles/str_echo_freertos.dir/home/aselsan/Desktop/GPT_BACKUP/freertos-colibri-imx7/middleware/multicore/open-amp/rpmsg/remote_device.c.obj
                0x1fff8cb4                rpmsg_rdev_deinit
 .text.rpmsg_rdev_notify
                0x1fff8d2c       0x2c CMakeFiles/str_echo_freertos.dir/home/aselsan/Desktop/GPT_BACKUP/freertos-colibri-imx7/middleware/multicore/open-amp/rpmsg/remote_device.c.obj
                0x1fff8d2c                rpmsg_rdev_notify
 .text.rpmsg_deinit
                0x1fff8d58       0x10 CMakeFiles/str_echo_freertos.dir/home/aselsan/Desktop/GPT_BACKUP/freertos-colibri-imx7/middleware/multicore/open-amp/rpmsg/rpmsg.c.obj
                0x1fff8d58                rpmsg_deinit
 .text.rpmsg_init
                0x1fff8d68       0x48 CMakeFiles/str_echo_freertos.dir/home/aselsan/Desktop/GPT_BACKUP/freertos-colibri-imx7/middleware/multicore/open-amp/rpmsg/rpmsg.c.obj
                0x1fff8d68                rpmsg_init
 .text.rpmsg_send_offchannel_raw
                0x1fff8db0      0x15c CMakeFiles/str_echo_freertos.dir/home/aselsan/Desktop/GPT_BACKUP/freertos-colibri-imx7/middleware/multicore/open-amp/rpmsg/rpmsg.c.obj
                0x1fff8db0                rpmsg_send_offchannel_raw
 .text.rpmsg_create_ept
                0x1fff8f0c       0x20 CMakeFiles/str_echo_freertos.dir/home/aselsan/Desktop/GPT_BACKUP/freertos-colibri-imx7/middleware/multicore/open-amp/rpmsg/rpmsg.c.obj
                0x1fff8f0c                rpmsg_create_ept
 .text.rpmsg_destroy_ept
                0x1fff8f2c       0x14 CMakeFiles/str_echo_freertos.dir/home/aselsan/Desktop/GPT_BACKUP/freertos-colibri-imx7/middleware/multicore/open-amp/rpmsg/rpmsg.c.obj
                0x1fff8f2c                rpmsg_destroy_ept
 .text._rpmsg_create_channel
                0x1fff8f40       0x64 CMakeFiles/str_echo_freertos.dir/home/aselsan/Desktop/GPT_BACKUP/freertos-colibri-imx7/middleware/multicore/open-amp/rpmsg/rpmsg_core.c.obj
                0x1fff8f40                _rpmsg_create_channel
 .text._rpmsg_delete_channel
                0x1fff8fa4       0x3c CMakeFiles/str_echo_freertos.dir/home/aselsan/Desktop/GPT_BACKUP/freertos-colibri-imx7/middleware/multicore/open-amp/rpmsg/rpmsg_core.c.obj
                0x1fff8fa4                _rpmsg_delete_channel
 .text.rpmsg_ns_callback
                0x1fff8fe0       0x80 CMakeFiles/str_echo_freertos.dir/home/aselsan/Desktop/GPT_BACKUP/freertos-colibri-imx7/middleware/multicore/open-amp/rpmsg/rpmsg_core.c.obj
                0x1fff8fe0                rpmsg_ns_callback
 .text.rpmsg_enqueue_buffer
                0x1fff9060       0x30 CMakeFiles/str_echo_freertos.dir/home/aselsan/Desktop/GPT_BACKUP/freertos-colibri-imx7/middleware/multicore/open-amp/rpmsg/rpmsg_core.c.obj
                0x1fff9060                rpmsg_enqueue_buffer
 .text.rpmsg_return_buffer
                0x1fff9090       0x30 CMakeFiles/str_echo_freertos.dir/home/aselsan/Desktop/GPT_BACKUP/freertos-colibri-imx7/middleware/multicore/open-amp/rpmsg/rpmsg_core.c.obj
                0x1fff9090                rpmsg_return_buffer
 .text.rpmsg_get_tx_buffer
                0x1fff90c0       0x38 CMakeFiles/str_echo_freertos.dir/home/aselsan/Desktop/GPT_BACKUP/freertos-colibri-imx7/middleware/multicore/open-amp/rpmsg/rpmsg_core.c.obj
                0x1fff90c0                rpmsg_get_tx_buffer
 .text.rpmsg_send_ns_message
                0x1fff90f8       0x68 CMakeFiles/str_echo_freertos.dir/home/aselsan/Desktop/GPT_BACKUP/freertos-colibri-imx7/middleware/multicore/open-amp/rpmsg/rpmsg_core.c.obj
                0x1fff90f8                rpmsg_send_ns_message
 .text.rpmsg_tx_callback
                0x1fff9160       0x38 CMakeFiles/str_echo_freertos.dir/home/aselsan/Desktop/GPT_BACKUP/freertos-colibri-imx7/middleware/multicore/open-amp/rpmsg/rpmsg_core.c.obj
 .text.rpmsg_get_rx_buffer
                0x1fff9198       0x20 CMakeFiles/str_echo_freertos.dir/home/aselsan/Desktop/GPT_BACKUP/freertos-colibri-imx7/middleware/multicore/open-amp/rpmsg/rpmsg_core.c.obj
                0x1fff9198                rpmsg_get_rx_buffer
 .text.rpmsg_rx_callback
                0x1fff91b8       0xe0 CMakeFiles/str_echo_freertos.dir/home/aselsan/Desktop/GPT_BACKUP/freertos-colibri-imx7/middleware/multicore/open-amp/rpmsg/rpmsg_core.c.obj
 .text.rpmsg_free_buffer
                0x1fff9298       0x14 CMakeFiles/str_echo_freertos.dir/home/aselsan/Desktop/GPT_BACKUP/freertos-colibri-imx7/middleware/multicore/open-amp/rpmsg/rpmsg_core.c.obj
                0x1fff9298                rpmsg_free_buffer
 .text.rpmsg_get_address
                0x1fff92ac       0x38 CMakeFiles/str_echo_freertos.dir/home/aselsan/Desktop/GPT_BACKUP/freertos-colibri-imx7/middleware/multicore/open-amp/rpmsg/rpmsg_core.c.obj
                0x1fff92ac                rpmsg_get_address
 .text.rpmsg_release_address
                0x1fff92e4       0x40 CMakeFiles/str_echo_freertos.dir/home/aselsan/Desktop/GPT_BACKUP/freertos-colibri-imx7/middleware/multicore/open-amp/rpmsg/rpmsg_core.c.obj
                0x1fff92e4                rpmsg_release_address
 .text._destroy_endpoint
                0x1fff9324       0x40 CMakeFiles/str_echo_freertos.dir/home/aselsan/Desktop/GPT_BACKUP/freertos-colibri-imx7/middleware/multicore/open-amp/rpmsg/rpmsg_core.c.obj
                0x1fff9324                _destroy_endpoint
 .text.rpmsg_is_address_set
                0x1fff9364       0x38 CMakeFiles/str_echo_freertos.dir/home/aselsan/Desktop/GPT_BACKUP/freertos-colibri-imx7/middleware/multicore/open-amp/rpmsg/rpmsg_core.c.obj
                0x1fff9364                rpmsg_is_address_set
 .text.rpmsg_set_address
                0x1fff939c       0x3c CMakeFiles/str_echo_freertos.dir/home/aselsan/Desktop/GPT_BACKUP/freertos-colibri-imx7/middleware/multicore/open-amp/rpmsg/rpmsg_core.c.obj
                0x1fff939c                rpmsg_set_address
 .text._create_endpoint
                0x1fff93d8       0xb8 CMakeFiles/str_echo_freertos.dir/home/aselsan/Desktop/GPT_BACKUP/freertos-colibri-imx7/middleware/multicore/open-amp/rpmsg/rpmsg_core.c.obj
                0x1fff93d8                _create_endpoint
 .text.rpmsg_start_ipc
                0x1fff9490       0xc4 CMakeFiles/str_echo_freertos.dir/home/aselsan/Desktop/GPT_BACKUP/freertos-colibri-imx7/middleware/multicore/open-amp/rpmsg/rpmsg_core.c.obj
                0x1fff9490                rpmsg_start_ipc
 .text.rpmsg_hold_rx_buffer
                0x1fff9554       0x14 CMakeFiles/str_echo_freertos.dir/home/aselsan/Desktop/GPT_BACKUP/freertos-colibri-imx7/middleware/multicore/open-amp/rpmsg/rpmsg_ext.c.obj
                0x1fff9554                rpmsg_hold_rx_buffer
 .text.rpmsg_release_rx_buffer
                0x1fff9568       0x30 CMakeFiles/str_echo_freertos.dir/home/aselsan/Desktop/GPT_BACKUP/freertos-colibri-imx7/middleware/multicore/open-amp/rpmsg/rpmsg_ext.c.obj
                0x1fff9568                rpmsg_release_rx_buffer
 .text.rpmsg_alloc_tx_buffer
                0x1fff9598       0x8c CMakeFiles/str_echo_freertos.dir/home/aselsan/Desktop/GPT_BACKUP/freertos-colibri-imx7/middleware/multicore/open-amp/rpmsg/rpmsg_ext.c.obj
                0x1fff9598                rpmsg_alloc_tx_buffer
 .text.rpmsg_send_offchannel_nocopy
                0x1fff9624       0x5c CMakeFiles/str_echo_freertos.dir/home/aselsan/Desktop/GPT_BACKUP/freertos-colibri-imx7/middleware/multicore/open-amp/rpmsg/rpmsg_ext.c.obj
                0x1fff9624                rpmsg_send_offchannel_nocopy
 .text.rpmsg_channel_deleted_rtos
                0x1fff9680       0x28 CMakeFiles/str_echo_freertos.dir/home/aselsan/Desktop/GPT_BACKUP/freertos-colibri-imx7/middleware/multicore/open-amp/rpmsg/rpmsg_rtos.c.obj
 .text.rpmsg_read_rtos_cb
                0x1fff96a8       0x58 CMakeFiles/str_echo_freertos.dir/home/aselsan/Desktop/GPT_BACKUP/freertos-colibri-imx7/middleware/multicore/open-amp/rpmsg/rpmsg_rtos.c.obj
 .text.rpmsg_channel_created_rtos
                0x1fff9700       0x54 CMakeFiles/str_echo_freertos.dir/home/aselsan/Desktop/GPT_BACKUP/freertos-colibri-imx7/middleware/multicore/open-amp/rpmsg/rpmsg_rtos.c.obj
 .text.rpmsg_rtos_init
                0x1fff9754       0xd0 CMakeFiles/str_echo_freertos.dir/home/aselsan/Desktop/GPT_BACKUP/freertos-colibri-imx7/middleware/multicore/open-amp/rpmsg/rpmsg_rtos.c.obj
                0x1fff9754                rpmsg_rtos_init
 .text.rpmsg_rtos_recv_nocopy
                0x1fff9824       0x58 CMakeFiles/str_echo_freertos.dir/home/aselsan/Desktop/GPT_BACKUP/freertos-colibri-imx7/middleware/multicore/open-amp/rpmsg/rpmsg_rtos.c.obj
                0x1fff9824                rpmsg_rtos_recv_nocopy
 .text.rpmsg_rtos_recv_nocopy_free
                0x1fff987c       0x2c CMakeFiles/str_echo_freertos.dir/home/aselsan/Desktop/GPT_BACKUP/freertos-colibri-imx7/middleware/multicore/open-amp/rpmsg/rpmsg_rtos.c.obj
                0x1fff987c                rpmsg_rtos_recv_nocopy_free
 .text.rpmsg_rtos_alloc_tx_buffer
                0x1fff98a8       0x28 CMakeFiles/str_echo_freertos.dir/home/aselsan/Desktop/GPT_BACKUP/freertos-colibri-imx7/middleware/multicore/open-amp/rpmsg/rpmsg_rtos.c.obj
                0x1fff98a8                rpmsg_rtos_alloc_tx_buffer
 .text.rpmsg_rtos_send_nocopy
                0x1fff98d0       0x3c CMakeFiles/str_echo_freertos.dir/home/aselsan/Desktop/GPT_BACKUP/freertos-colibri-imx7/middleware/multicore/open-amp/rpmsg/rpmsg_rtos.c.obj
                0x1fff98d0                rpmsg_rtos_send_nocopy
 .text.vq_ring_free_chain
                0x1fff990c       0x54 CMakeFiles/str_echo_freertos.dir/home/aselsan/Desktop/GPT_BACKUP/freertos-colibri-imx7/middleware/multicore/open-amp/virtio/virtqueue.c.obj
 .text.vq_ring_init
                0x1fff9960       0x48 CMakeFiles/str_echo_freertos.dir/home/aselsan/Desktop/GPT_BACKUP/freertos-colibri-imx7/middleware/multicore/open-amp/virtio/virtqueue.c.obj
 .text.vq_ring_must_notify_host
                0x1fff99a8       0x3c CMakeFiles/str_echo_freertos.dir/home/aselsan/Desktop/GPT_BACKUP/freertos-colibri-imx7/middleware/multicore/open-amp/virtio/virtqueue.c.obj
 .text.vq_ring_notify_host
                0x1fff99e4        0xc CMakeFiles/str_echo_freertos.dir/home/aselsan/Desktop/GPT_BACKUP/freertos-colibri-imx7/middleware/multicore/open-amp/virtio/virtqueue.c.obj
 .text.vq_ring_add_buffer
                0x1fff99f0       0x5c CMakeFiles/str_echo_freertos.dir/home/aselsan/Desktop/GPT_BACKUP/freertos-colibri-imx7/middleware/multicore/open-amp/virtio/virtqueue.c.obj
 .text.vq_ring_update_avail
                0x1fff9a4c       0x2c CMakeFiles/str_echo_freertos.dir/home/aselsan/Desktop/GPT_BACKUP/freertos-colibri-imx7/middleware/multicore/open-amp/virtio/virtqueue.c.obj
 .text.virtqueue_add_buffer
                0x1fff9a78       0x48 CMakeFiles/str_echo_freertos.dir/home/aselsan/Desktop/GPT_BACKUP/freertos-colibri-imx7/middleware/multicore/open-amp/virtio/virtqueue.c.obj
                0x1fff9a78                virtqueue_add_buffer
 .text.virtqueue_get_buffer
                0x1fff9ac0       0x5c CMakeFiles/str_echo_freertos.dir/home/aselsan/Desktop/GPT_BACKUP/freertos-colibri-imx7/middleware/multicore/open-amp/virtio/virtqueue.c.obj
                0x1fff9ac0                virtqueue_get_buffer
 .text.virtqueue_free
                0x1fff9b1c       0x1c CMakeFiles/str_echo_freertos.dir/home/aselsan/Desktop/GPT_BACKUP/freertos-colibri-imx7/middleware/multicore/open-amp/virtio/virtqueue.c.obj
                0x1fff9b1c                virtqueue_free
 .text.virtqueue_get_available_buffer
                0x1fff9b38       0x4c CMakeFiles/str_echo_freertos.dir/home/aselsan/Desktop/GPT_BACKUP/freertos-colibri-imx7/middleware/multicore/open-amp/virtio/virtqueue.c.obj
                0x1fff9b38                virtqueue_get_available_buffer
 .text.virtqueue_add_consumed_buffer
                0x1fff9b84       0x34 CMakeFiles/str_echo_freertos.dir/home/aselsan/Desktop/GPT_BACKUP/freertos-colibri-imx7/middleware/multicore/open-amp/virtio/virtqueue.c.obj
                0x1fff9b84                virtqueue_add_consumed_buffer
 .text.virtqueue_disable_cb
                0x1fff9bb8       0x34 CMakeFiles/str_echo_freertos.dir/home/aselsan/Desktop/GPT_BACKUP/freertos-colibri-imx7/middleware/multicore/open-amp/virtio/virtqueue.c.obj
                0x1fff9bb8                virtqueue_disable_cb
 .text.virtqueue_create
                0x1fff9bec       0x8c CMakeFiles/str_echo_freertos.dir/home/aselsan/Desktop/GPT_BACKUP/freertos-colibri-imx7/middleware/multicore/open-amp/virtio/virtqueue.c.obj
                0x1fff9bec                virtqueue_create
 .text.virtqueue_kick
                0x1fff9c78       0x20 CMakeFiles/str_echo_freertos.dir/home/aselsan/Desktop/GPT_BACKUP/freertos-colibri-imx7/middleware/multicore/open-amp/virtio/virtqueue.c.obj
                0x1fff9c78                virtqueue_kick
 .text.virtqueue_notification
                0x1fff9c98        0xc CMakeFiles/str_echo_freertos.dir/home/aselsan/Desktop/GPT_BACKUP/freertos-colibri-imx7/middleware/multicore/open-amp/virtio/virtqueue.c.obj
                0x1fff9c98                virtqueue_notification
 .text.SystemInit
                0x1fff9ca4       0xe0 CMakeFiles/str_echo_freertos.dir/home/aselsan/Desktop/GPT_BACKUP/freertos-colibri-imx7/platform/devices/MCIMX7D/startup/system_MCIMX7D_M4.c.obj
                0x1fff9ca4                SystemInit
 .text.CCM_ANALOG_GetSysPllFreq
                0x1fff9d84       0x34 CMakeFiles/str_echo_freertos.dir/home/aselsan/Desktop/GPT_BACKUP/freertos-colibri-imx7/platform/drivers/src/ccm_analog_imx7d.c.obj
                0x1fff9d84                CCM_ANALOG_GetSysPllFreq
 .text.CCM_GetRootDivider
                0x1fff9db8       0x34 CMakeFiles/str_echo_freertos.dir/home/aselsan/Desktop/GPT_BACKUP/freertos-colibri-imx7/platform/drivers/src/ccm_imx7d.c.obj
                0x1fff9db8                CCM_GetRootDivider
 .text.CCM_UpdateRoot
                0x1fff9dec       0x74 CMakeFiles/str_echo_freertos.dir/home/aselsan/Desktop/GPT_BACKUP/freertos-colibri-imx7/platform/drivers/src/ccm_imx7d.c.obj
                0x1fff9dec                CCM_UpdateRoot
 .text.MU_SendMsg
                0x1fff9e60       0x30 CMakeFiles/str_echo_freertos.dir/home/aselsan/Desktop/GPT_BACKUP/freertos-colibri-imx7/platform/drivers/src/mu_imx.c.obj
                0x1fff9e60                MU_SendMsg
 .text.MU_TryReceiveMsg
                0x1fff9e90       0x3c CMakeFiles/str_echo_freertos.dir/home/aselsan/Desktop/GPT_BACKUP/freertos-colibri-imx7/platform/drivers/src/mu_imx.c.obj
                0x1fff9e90                MU_TryReceiveMsg
 .text.UART_Deinit
                0x1fff9ecc       0x60 CMakeFiles/str_echo_freertos.dir/home/aselsan/Desktop/GPT_BACKUP/freertos-colibri-imx7/platform/drivers/src/uart_imx.c.obj
                0x1fff9ecc                UART_Deinit
 .text.UART_SetBaudRate
                0x1fff9f2c       0xec CMakeFiles/str_echo_freertos.dir/home/aselsan/Desktop/GPT_BACKUP/freertos-colibri-imx7/platform/drivers/src/uart_imx.c.obj
                0x1fff9f2c                UART_SetBaudRate
 .text.UART_Init
                0x1fffa018       0x64 CMakeFiles/str_echo_freertos.dir/home/aselsan/Desktop/GPT_BACKUP/freertos-colibri-imx7/platform/drivers/src/uart_imx.c.obj
                0x1fffa018                UART_Init
 .text.UART_GetStatusFlag
                0x1fffa07c       0x10 CMakeFiles/str_echo_freertos.dir/home/aselsan/Desktop/GPT_BACKUP/freertos-colibri-imx7/platform/drivers/src/uart_imx.c.obj
                0x1fffa07c                UART_GetStatusFlag
 .text.UART_SetModemMode
                0x1fffa08c       0x44 CMakeFiles/str_echo_freertos.dir/home/aselsan/Desktop/GPT_BACKUP/freertos-colibri-imx7/platform/drivers/src/uart_imx.c.obj
                0x1fffa08c                UART_SetModemMode
 .text.GPT_Init
                0x1fffa0d0       0x80 CMakeFiles/str_echo_freertos.dir/home/aselsan/Desktop/GPT_BACKUP/freertos-colibri-imx7/platform/drivers/src/gpt.c.obj
                0x1fffa0d0                GPT_Init
 .text.GPT_SetClockSource
                0x1fffa150       0x4c CMakeFiles/str_echo_freertos.dir/home/aselsan/Desktop/GPT_BACKUP/freertos-colibri-imx7/platform/drivers/src/gpt.c.obj
                0x1fffa150                GPT_SetClockSource
 .text.GPT_SetIntCmd
                0x1fffa19c       0x14 CMakeFiles/str_echo_freertos.dir/home/aselsan/Desktop/GPT_BACKUP/freertos-colibri-imx7/platform/drivers/src/gpt.c.obj
                0x1fffa19c                GPT_SetIntCmd
 .text.GPIO_Init
                0x1fffa1b0       0x94 CMakeFiles/str_echo_freertos.dir/home/aselsan/Desktop/GPT_BACKUP/freertos-colibri-imx7/platform/drivers/src/gpio_imx.c.obj
                0x1fffa1b0                GPIO_Init
 .text.GPIO_WritePinOutput
                0x1fffa244       0x3c CMakeFiles/str_echo_freertos.dir/home/aselsan/Desktop/GPT_BACKUP/freertos-colibri-imx7/platform/drivers/src/gpio_imx.c.obj
                0x1fffa244                GPIO_WritePinOutput
 .text.debug_putc
                0x1fffa280       0x2c CMakeFiles/str_echo_freertos.dir/home/aselsan/Desktop/GPT_BACKUP/freertos-colibri-imx7/platform/utilities/src/debug_console_imx.c.obj
 .text.UART_ReceiveDataPolling
                0x1fffa2ac       0x28 CMakeFiles/str_echo_freertos.dir/home/aselsan/Desktop/GPT_BACKUP/freertos-colibri-imx7/platform/utilities/src/debug_console_imx.c.obj
 .text.UART_SendDataPolling
                0x1fffa2d4       0x38 CMakeFiles/str_echo_freertos.dir/home/aselsan/Desktop/GPT_BACKUP/freertos-colibri-imx7/platform/utilities/src/debug_console_imx.c.obj
 .text.DbgConsole_Init
                0x1fffa30c       0x5c CMakeFiles/str_echo_freertos.dir/home/aselsan/Desktop/GPT_BACKUP/freertos-colibri-imx7/platform/utilities/src/debug_console_imx.c.obj
                0x1fffa30c                DbgConsole_Init
 .text._write   0x1fffa368       0x38 CMakeFiles/str_echo_freertos.dir/home/aselsan/Desktop/GPT_BACKUP/freertos-colibri-imx7/platform/utilities/src/debug_console_imx.c.obj
                0x1fffa368                _write
 .text._read    0x1fffa3a0       0x28 CMakeFiles/str_echo_freertos.dir/home/aselsan/Desktop/GPT_BACKUP/freertos-colibri-imx7/platform/utilities/src/debug_console_imx.c.obj
                0x1fffa3a0                _read
 .text.debug_printf
                0x1fffa3c8       0x38 CMakeFiles/str_echo_freertos.dir/home/aselsan/Desktop/GPT_BACKUP/freertos-colibri-imx7/platform/utilities/src/debug_console_imx.c.obj
                0x1fffa3c8                debug_printf
 .text.debug_putchar
                0x1fffa400       0x1c CMakeFiles/str_echo_freertos.dir/home/aselsan/Desktop/GPT_BACKUP/freertos-colibri-imx7/platform/utilities/src/debug_console_imx.c.obj
                0x1fffa400                debug_putchar
 .text.I2C_Deinit
                0x1fffa41c       0x18 CMakeFiles/str_echo_freertos.dir/home/aselsan/Desktop/GPT_BACKUP/freertos-colibri-imx7/platform/drivers/src/i2c_imx.c.obj
                0x1fffa41c                I2C_Deinit
 .text.I2C_SetBaudRate
                0x1fffa434       0x5c CMakeFiles/str_echo_freertos.dir/home/aselsan/Desktop/GPT_BACKUP/freertos-colibri-imx7/platform/drivers/src/i2c_imx.c.obj
                0x1fffa434                I2C_SetBaudRate
 .text.I2C_Init
                0x1fffa490       0x6c CMakeFiles/str_echo_freertos.dir/home/aselsan/Desktop/GPT_BACKUP/freertos-colibri-imx7/platform/drivers/src/i2c_imx.c.obj
                0x1fffa490                I2C_Init
 .text.I2C_SetAckBit
                0x1fffa4fc       0x1c CMakeFiles/str_echo_freertos.dir/home/aselsan/Desktop/GPT_BACKUP/freertos-colibri-imx7/platform/drivers/src/i2c_imx.c.obj
                0x1fffa4fc                I2C_SetAckBit
 .text.mknumstr
                0x1fffa518       0x7c CMakeFiles/str_echo_freertos.dir/home/aselsan/Desktop/GPT_BACKUP/freertos-colibri-imx7/platform/utilities/src/print_scan.c.obj
 .text.fput_pad
                0x1fffa594       0x28 CMakeFiles/str_echo_freertos.dir/home/aselsan/Desktop/GPT_BACKUP/freertos-colibri-imx7/platform/utilities/src/print_scan.c.obj
 .text._doprint
                0x1fffa5bc      0x524 CMakeFiles/str_echo_freertos.dir/home/aselsan/Desktop/GPT_BACKUP/freertos-colibri-imx7/platform/utilities/src/print_scan.c.obj
                0x1fffa5bc                _doprint
 .text.vListInitialise
                0x1fffaae0       0x18 CMakeFiles/str_echo_freertos.dir/home/aselsan/Desktop/GPT_BACKUP/freertos-colibri-imx7/rtos/FreeRTOS/Source/list.c.obj
                0x1fffaae0                vListInitialise
 .text.vListInitialiseItem
                0x1fffaaf8        0x8 CMakeFiles/str_echo_freertos.dir/home/aselsan/Desktop/GPT_BACKUP/freertos-colibri-imx7/rtos/FreeRTOS/Source/list.c.obj
                0x1fffaaf8                vListInitialiseItem
 .text.vListInsertEnd
                0x1fffab00       0x18 CMakeFiles/str_echo_freertos.dir/home/aselsan/Desktop/GPT_BACKUP/freertos-colibri-imx7/rtos/FreeRTOS/Source/list.c.obj
                0x1fffab00                vListInsertEnd
 .text.vListInsert
                0x1fffab18       0x34 CMakeFiles/str_echo_freertos.dir/home/aselsan/Desktop/GPT_BACKUP/freertos-colibri-imx7/rtos/FreeRTOS/Source/list.c.obj
                0x1fffab18                vListInsert
 .text.uxListRemove
                0x1fffab4c       0x24 CMakeFiles/str_echo_freertos.dir/home/aselsan/Desktop/GPT_BACKUP/freertos-colibri-imx7/rtos/FreeRTOS/Source/list.c.obj
                0x1fffab4c                uxListRemove
 .text.prvTaskExitError
                0x1fffab70       0x34 CMakeFiles/str_echo_freertos.dir/home/aselsan/Desktop/GPT_BACKUP/freertos-colibri-imx7/rtos/FreeRTOS/Source/portable/GCC/ARM_CM4F/port.c.obj
 .text.prvPortStartFirstTask
                0x1fffaba4       0x20 CMakeFiles/str_echo_freertos.dir/home/aselsan/Desktop/GPT_BACKUP/freertos-colibri-imx7/rtos/FreeRTOS/Source/portable/GCC/ARM_CM4F/port.c.obj
 .text.vPortEnableVFP
                0x1fffabc4       0x14 CMakeFiles/str_echo_freertos.dir/home/aselsan/Desktop/GPT_BACKUP/freertos-colibri-imx7/rtos/FreeRTOS/Source/portable/GCC/ARM_CM4F/port.c.obj
 .text.pxPortInitialiseStack
                0x1fffabd8       0x28 CMakeFiles/str_echo_freertos.dir/home/aselsan/Desktop/GPT_BACKUP/freertos-colibri-imx7/rtos/FreeRTOS/Source/portable/GCC/ARM_CM4F/port.c.obj
                0x1fffabd8                pxPortInitialiseStack
 .text.SVC_Handler
                0x1fffac00       0x20 CMakeFiles/str_echo_freertos.dir/home/aselsan/Desktop/GPT_BACKUP/freertos-colibri-imx7/rtos/FreeRTOS/Source/portable/GCC/ARM_CM4F/port.c.obj
                0x1fffac00                SVC_Handler
 .text.vPortEnterCritical
                0x1fffac20       0x44 CMakeFiles/str_echo_freertos.dir/home/aselsan/Desktop/GPT_BACKUP/freertos-colibri-imx7/rtos/FreeRTOS/Source/portable/GCC/ARM_CM4F/port.c.obj
                0x1fffac20                vPortEnterCritical
 .text.vPortExitCritical
                0x1fffac64       0x2c CMakeFiles/str_echo_freertos.dir/home/aselsan/Desktop/GPT_BACKUP/freertos-colibri-imx7/rtos/FreeRTOS/Source/portable/GCC/ARM_CM4F/port.c.obj
                0x1fffac64                vPortExitCritical
 .text.PendSV_Handler
                0x1fffac90       0x60 CMakeFiles/str_echo_freertos.dir/home/aselsan/Desktop/GPT_BACKUP/freertos-colibri-imx7/rtos/FreeRTOS/Source/portable/GCC/ARM_CM4F/port.c.obj
                0x1fffac90                PendSV_Handler
 .text.SysTick_Handler
                0x1fffacf0       0x30 CMakeFiles/str_echo_freertos.dir/home/aselsan/Desktop/GPT_BACKUP/freertos-colibri-imx7/rtos/FreeRTOS/Source/portable/GCC/ARM_CM4F/port.c.obj
                0x1fffacf0                SysTick_Handler
 .text.vPortSetupTimerInterrupt
                0x1fffad20       0x18 CMakeFiles/str_echo_freertos.dir/home/aselsan/Desktop/GPT_BACKUP/freertos-colibri-imx7/rtos/FreeRTOS/Source/portable/GCC/ARM_CM4F/port.c.obj
                0x1fffad20                vPortSetupTimerInterrupt
 .text.xPortStartScheduler
                0x1fffad38       0xec CMakeFiles/str_echo_freertos.dir/home/aselsan/Desktop/GPT_BACKUP/freertos-colibri-imx7/rtos/FreeRTOS/Source/portable/GCC/ARM_CM4F/port.c.obj
                0x1fffad38                xPortStartScheduler
 .text.vPortValidateInterruptPriority
                0x1fffae24       0x5c CMakeFiles/str_echo_freertos.dir/home/aselsan/Desktop/GPT_BACKUP/freertos-colibri-imx7/rtos/FreeRTOS/Source/portable/GCC/ARM_CM4F/port.c.obj
                0x1fffae24                vPortValidateInterruptPriority
 .text.prvHeapInit
                0x1fffae80       0x2c CMakeFiles/str_echo_freertos.dir/home/aselsan/Desktop/GPT_BACKUP/freertos-colibri-imx7/rtos/FreeRTOS/Source/portable/MemMang/heap_2.c.obj
 .text.pvPortMalloc
                0x1fffaeac       0xa4 CMakeFiles/str_echo_freertos.dir/home/aselsan/Desktop/GPT_BACKUP/freertos-colibri-imx7/rtos/FreeRTOS/Source/portable/MemMang/heap_2.c.obj
                0x1fffaeac                pvPortMalloc
 .text.vPortFree
                0x1fffaf50       0x44 CMakeFiles/str_echo_freertos.dir/home/aselsan/Desktop/GPT_BACKUP/freertos-colibri-imx7/rtos/FreeRTOS/Source/portable/MemMang/heap_2.c.obj
                0x1fffaf50                vPortFree
 .text.prvIsQueueFull
                0x1fffaf94       0x20 CMakeFiles/str_echo_freertos.dir/home/aselsan/Desktop/GPT_BACKUP/freertos-colibri-imx7/rtos/FreeRTOS/Source/queue.c.obj
 .text.prvIsQueueEmpty
                0x1fffafb4       0x1c CMakeFiles/str_echo_freertos.dir/home/aselsan/Desktop/GPT_BACKUP/freertos-colibri-imx7/rtos/FreeRTOS/Source/queue.c.obj
 .text.prvCopyDataToQueue
                0x1fffafd0       0x5c CMakeFiles/str_echo_freertos.dir/home/aselsan/Desktop/GPT_BACKUP/freertos-colibri-imx7/rtos/FreeRTOS/Source/queue.c.obj
 .text.prvCopyDataFromQueue
                0x1fffb02c       0x24 CMakeFiles/str_echo_freertos.dir/home/aselsan/Desktop/GPT_BACKUP/freertos-colibri-imx7/rtos/FreeRTOS/Source/queue.c.obj
 .text.prvUnlockQueue
                0x1fffb050       0x64 CMakeFiles/str_echo_freertos.dir/home/aselsan/Desktop/GPT_BACKUP/freertos-colibri-imx7/rtos/FreeRTOS/Source/queue.c.obj
 .text.xQueueGenericReset
                0x1fffb0b4       0x80 CMakeFiles/str_echo_freertos.dir/home/aselsan/Desktop/GPT_BACKUP/freertos-colibri-imx7/rtos/FreeRTOS/Source/queue.c.obj
                0x1fffb0b4                xQueueGenericReset
 .text.xQueueGenericCreate
                0x1fffb134       0x64 CMakeFiles/str_echo_freertos.dir/home/aselsan/Desktop/GPT_BACKUP/freertos-colibri-imx7/rtos/FreeRTOS/Source/queue.c.obj
                0x1fffb134                xQueueGenericCreate
 .text.xQueueCreateCountingSemaphore
                0x1fffb198       0x54 CMakeFiles/str_echo_freertos.dir/home/aselsan/Desktop/GPT_BACKUP/freertos-colibri-imx7/rtos/FreeRTOS/Source/queue.c.obj
                0x1fffb198                xQueueCreateCountingSemaphore
 .text.xQueueGenericSend
                0x1fffb1ec      0x15c CMakeFiles/str_echo_freertos.dir/home/aselsan/Desktop/GPT_BACKUP/freertos-colibri-imx7/rtos/FreeRTOS/Source/queue.c.obj
                0x1fffb1ec                xQueueGenericSend
 .text.xQueueGenericSendFromISR
                0x1fffb348       0xdc CMakeFiles/str_echo_freertos.dir/home/aselsan/Desktop/GPT_BACKUP/freertos-colibri-imx7/rtos/FreeRTOS/Source/queue.c.obj
                0x1fffb348                xQueueGenericSendFromISR
 .text.xQueueGiveFromISR
                0x1fffb424       0xb8 CMakeFiles/str_echo_freertos.dir/home/aselsan/Desktop/GPT_BACKUP/freertos-colibri-imx7/rtos/FreeRTOS/Source/queue.c.obj
                0x1fffb424                xQueueGiveFromISR
 .text.xQueueGenericReceive
                0x1fffb4dc      0x144 CMakeFiles/str_echo_freertos.dir/home/aselsan/Desktop/GPT_BACKUP/freertos-colibri-imx7/rtos/FreeRTOS/Source/queue.c.obj
                0x1fffb4dc                xQueueGenericReceive
 .text.xQueueReceiveFromISR
                0x1fffb620       0xa8 CMakeFiles/str_echo_freertos.dir/home/aselsan/Desktop/GPT_BACKUP/freertos-colibri-imx7/rtos/FreeRTOS/Source/queue.c.obj
                0x1fffb620                xQueueReceiveFromISR
 .text.vQueueUnregisterQueue
                0x1fffb6c8       0x28 CMakeFiles/str_echo_freertos.dir/home/aselsan/Desktop/GPT_BACKUP/freertos-colibri-imx7/rtos/FreeRTOS/Source/queue.c.obj
                0x1fffb6c8                vQueueUnregisterQueue
 .text.vQueueDelete
                0x1fffb6f0       0x24 CMakeFiles/str_echo_freertos.dir/home/aselsan/Desktop/GPT_BACKUP/freertos-colibri-imx7/rtos/FreeRTOS/Source/queue.c.obj
                0x1fffb6f0                vQueueDelete
 .text.prvIdleTask
                0x1fffb714        0x4 CMakeFiles/str_echo_freertos.dir/home/aselsan/Desktop/GPT_BACKUP/freertos-colibri-imx7/rtos/FreeRTOS/Source/tasks.c.obj
 .text.prvResetNextTaskUnblockTime
                0x1fffb718       0x34 CMakeFiles/str_echo_freertos.dir/home/aselsan/Desktop/GPT_BACKUP/freertos-colibri-imx7/rtos/FreeRTOS/Source/tasks.c.obj
 .text.prvAllocateTCBAndStack
                0x1fffb74c       0x2c CMakeFiles/str_echo_freertos.dir/home/aselsan/Desktop/GPT_BACKUP/freertos-colibri-imx7/rtos/FreeRTOS/Source/tasks.c.obj
 .text.prvInitialiseTCBVariables
                0x1fffb778       0x4c CMakeFiles/str_echo_freertos.dir/home/aselsan/Desktop/GPT_BACKUP/freertos-colibri-imx7/rtos/FreeRTOS/Source/tasks.c.obj
 .text.prvInitialiseTaskLists
                0x1fffb7c4       0x5c CMakeFiles/str_echo_freertos.dir/home/aselsan/Desktop/GPT_BACKUP/freertos-colibri-imx7/rtos/FreeRTOS/Source/tasks.c.obj
 .text.prvAddCurrentTaskToDelayedList
                0x1fffb820       0x54 CMakeFiles/str_echo_freertos.dir/home/aselsan/Desktop/GPT_BACKUP/freertos-colibri-imx7/rtos/FreeRTOS/Source/tasks.c.obj
 .text.xTaskGenericCreate
                0x1fffb874      0x130 CMakeFiles/str_echo_freertos.dir/home/aselsan/Desktop/GPT_BACKUP/freertos-colibri-imx7/rtos/FreeRTOS/Source/tasks.c.obj
                0x1fffb874                xTaskGenericCreate
 .text.vTaskStartScheduler
                0x1fffb9a4       0x74 CMakeFiles/str_echo_freertos.dir/home/aselsan/Desktop/GPT_BACKUP/freertos-colibri-imx7/rtos/FreeRTOS/Source/tasks.c.obj
                0x1fffb9a4                vTaskStartScheduler
 .text.vTaskSuspendAll
                0x1fffba18       0x10 CMakeFiles/str_echo_freertos.dir/home/aselsan/Desktop/GPT_BACKUP/freertos-colibri-imx7/rtos/FreeRTOS/Source/tasks.c.obj
                0x1fffba18                vTaskSuspendAll
 .text.xTaskIncrementTick
                0x1fffba28      0x128 CMakeFiles/str_echo_freertos.dir/home/aselsan/Desktop/GPT_BACKUP/freertos-colibri-imx7/rtos/FreeRTOS/Source/tasks.c.obj
                0x1fffba28                xTaskIncrementTick
 .text.xTaskResumeAll
                0x1fffbb50       0xf8 CMakeFiles/str_echo_freertos.dir/home/aselsan/Desktop/GPT_BACKUP/freertos-colibri-imx7/rtos/FreeRTOS/Source/tasks.c.obj
                0x1fffbb50                xTaskResumeAll
 .text.vTaskDelay
                0x1fffbc48       0x80 CMakeFiles/str_echo_freertos.dir/home/aselsan/Desktop/GPT_BACKUP/freertos-colibri-imx7/rtos/FreeRTOS/Source/tasks.c.obj
                0x1fffbc48                vTaskDelay
 .text.vTaskSwitchContext
                0x1fffbcc8       0x98 CMakeFiles/str_echo_freertos.dir/home/aselsan/Desktop/GPT_BACKUP/freertos-colibri-imx7/rtos/FreeRTOS/Source/tasks.c.obj
                0x1fffbcc8                vTaskSwitchContext
 .text.vTaskPlaceOnEventList
                0x1fffbd60       0x70 CMakeFiles/str_echo_freertos.dir/home/aselsan/Desktop/GPT_BACKUP/freertos-colibri-imx7/rtos/FreeRTOS/Source/tasks.c.obj
                0x1fffbd60                vTaskPlaceOnEventList
 .text.xTaskRemoveFromEventList
                0x1fffbdd0       0x8c CMakeFiles/str_echo_freertos.dir/home/aselsan/Desktop/GPT_BACKUP/freertos-colibri-imx7/rtos/FreeRTOS/Source/tasks.c.obj
                0x1fffbdd0                xTaskRemoveFromEventList
 .text.vTaskSetTimeOutState
                0x1fffbe5c       0x2c CMakeFiles/str_echo_freertos.dir/home/aselsan/Desktop/GPT_BACKUP/freertos-colibri-imx7/rtos/FreeRTOS/Source/tasks.c.obj
                0x1fffbe5c                vTaskSetTimeOutState
 .text.xTaskCheckForTimeOut
                0x1fffbe88       0x80 CMakeFiles/str_echo_freertos.dir/home/aselsan/Desktop/GPT_BACKUP/freertos-colibri-imx7/rtos/FreeRTOS/Source/tasks.c.obj
                0x1fffbe88                xTaskCheckForTimeOut
 .text.vTaskMissedYield
                0x1fffbf08        0xc CMakeFiles/str_echo_freertos.dir/home/aselsan/Desktop/GPT_BACKUP/freertos-colibri-imx7/rtos/FreeRTOS/Source/tasks.c.obj
                0x1fffbf08                vTaskMissedYield
 .text.BOARD_ClockInit
                0x1fffbf14      0x164 CMakeFiles/str_echo_freertos.dir/home/aselsan/Desktop/GPT_BACKUP/freertos-colibri-imx7/examples/imx7_colibri_m4/board.c.obj
                0x1fffbf14                BOARD_ClockInit
 .text.BOARD_RdcInit
                0x1fffc078       0x10 CMakeFiles/str_echo_freertos.dir/home/aselsan/Desktop/GPT_BACKUP/freertos-colibri-imx7/examples/imx7_colibri_m4/board.c.obj
                0x1fffc078                BOARD_RdcInit
 .text.get_i2c_clock_freq
                0x1fffc088       0xc8 CMakeFiles/str_echo_freertos.dir/home/aselsan/Desktop/GPT_BACKUP/freertos-colibri-imx7/examples/imx7_colibri_m4/clock_freq.c.obj
                0x1fffc088                get_i2c_clock_freq
 .text.get_uart_clock_freq
                0x1fffc150       0xd4 CMakeFiles/str_echo_freertos.dir/home/aselsan/Desktop/GPT_BACKUP/freertos-colibri-imx7/examples/imx7_colibri_m4/clock_freq.c.obj
                0x1fffc150                get_uart_clock_freq
 .text.configure_i2c_pins
                0x1fffc224      0x12c CMakeFiles/str_echo_freertos.dir/home/aselsan/Desktop/GPT_BACKUP/freertos-colibri-imx7/examples/imx7_colibri_m4/pin_mux.c.obj
                0x1fffc224                configure_i2c_pins
 .text.configure_uart_pins
                0x1fffc350       0x7c CMakeFiles/str_echo_freertos.dir/home/aselsan/Desktop/GPT_BACKUP/freertos-colibri-imx7/examples/imx7_colibri_m4/pin_mux.c.obj
                0x1fffc350                configure_uart_pins
 .text.hardware_init
                0x1fffc3cc      0x1f0 CMakeFiles/str_echo_freertos.dir/home/aselsan/Desktop/GPT_BACKUP/freertos-colibri-imx7/examples/imx7_colibri_m4/demo_apps/rpmsg/str_echo_freertos/hardware_init.c.obj
                0x1fffc3cc                hardware_init
 .text.main     0x1fffc5bc       0xe4 CMakeFiles/str_echo_freertos.dir/home/aselsan/Desktop/GPT_BACKUP/freertos-colibri-imx7/examples/imx7_colibri_m4/demo_apps/rpmsg/str_echo_freertos/str_echo_freertos.c.obj
                0x1fffc5bc                main
 .text.MU_M4_Handler
                0x1fffc6a0        0x8 CMakeFiles/str_echo_freertos.dir/home/aselsan/Desktop/GPT_BACKUP/freertos-colibri-imx7/examples/imx7_colibri_m4/demo_apps/rpmsg/str_echo_freertos/str_echo_freertos.c.obj
                0x1fffc6a0                MU_M4_Handler
 .text.Hw_Timer_Init
                0x1fffc6a8       0xf0 CMakeFiles/str_echo_freertos.dir/home/aselsan/Desktop/GPT_BACKUP/freertos-colibri-imx7/examples/imx7_colibri_m4/demo_apps/rpmsg/str_echo_freertos/timer.c.obj
                0x1fffc6a8                Hw_Timer_Init
 .text.GPT3_Handler
                0x1fffc798        0xc CMakeFiles/str_echo_freertos.dir/home/aselsan/Desktop/GPT_BACKUP/freertos-colibri-imx7/examples/imx7_colibri_m4/demo_apps/rpmsg/str_echo_freertos/timer.c.obj
                0x1fffc798                GPT3_Handler
 .text.i2s_init
                0x1fffc7a4       0xb0 CMakeFiles/str_echo_freertos.dir/home/aselsan/Desktop/GPT_BACKUP/freertos-colibri-imx7/examples/imx7_colibri_m4/demo_apps/rpmsg/str_echo_freertos/gpio.c.obj
                0x1fffc7a4                i2s_init
 .text.init_gpio
                0x1fffc854       0xd8 CMakeFiles/str_echo_freertos.dir/home/aselsan/Desktop/GPT_BACKUP/freertos-colibri-imx7/examples/imx7_colibri_m4/demo_apps/rpmsg/str_echo_freertos/gpio.c.obj
                0x1fffc854                init_gpio
 .text.fill_sai
                0x1fffc92c       0x40 CMakeFiles/str_echo_freertos.dir/home/aselsan/Desktop/GPT_BACKUP/freertos-colibri-imx7/examples/imx7_colibri_m4/demo_apps/rpmsg/str_echo_freertos/gpio.c.obj
                0x1fffc92c                fill_sai
 .text.task_ledToggle
                0x1fffc96c       0x18 CMakeFiles/str_echo_freertos.dir/home/aselsan/Desktop/GPT_BACKUP/freertos-colibri-imx7/examples/imx7_colibri_m4/demo_apps/rpmsg/str_echo_freertos/gpio.c.obj
                0x1fffc96c                task_ledToggle
 .text.I2C_MasterSendDataPolling
                0x1fffc984       0x94 CMakeFiles/str_echo_freertos.dir/home/aselsan/Desktop/GPT_BACKUP/freertos-colibri-imx7/examples/imx7_colibri_m4/demo_apps/rpmsg/str_echo_freertos/i2c.c.obj
 .text.I2C_MasterReceiveDataPolling
                0x1fffca18      0x168 CMakeFiles/str_echo_freertos.dir/home/aselsan/Desktop/GPT_BACKUP/freertos-colibri-imx7/examples/imx7_colibri_m4/demo_apps/rpmsg/str_echo_freertos/i2c.c.obj
 .text.init_tca6424
                0x1fffcb80      0x11c CMakeFiles/str_echo_freertos.dir/home/aselsan/Desktop/GPT_BACKUP/freertos-colibri-imx7/examples/imx7_colibri_m4/demo_apps/rpmsg/str_echo_freertos/i2c.c.obj
                0x1fffcb80                init_tca6424
 .text.read_rotary_switch
                0x1fffcc9c       0xb0 CMakeFiles/str_echo_freertos.dir/home/aselsan/Desktop/GPT_BACKUP/freertos-colibri-imx7/examples/imx7_colibri_m4/demo_apps/rpmsg/str_echo_freertos/i2c.c.obj
                0x1fffcc9c                read_rotary_switch
 .text.read_switches
                0x1fffcd4c       0xa4 CMakeFiles/str_echo_freertos.dir/home/aselsan/Desktop/GPT_BACKUP/freertos-colibri-imx7/examples/imx7_colibri_m4/demo_apps/rpmsg/str_echo_freertos/i2c.c.obj
                0x1fffcd4c                read_switches
 .text.task_button_card_process
                0x1fffcdf0       0x14 CMakeFiles/str_echo_freertos.dir/home/aselsan/Desktop/GPT_BACKUP/freertos-colibri-imx7/examples/imx7_colibri_m4/demo_apps/rpmsg/str_echo_freertos/i2c.c.obj
                0x1fffcdf0                task_button_card_process
 .text.setPin   0x1fffce04       0xa8 CMakeFiles/str_echo_freertos.dir/home/aselsan/Desktop/GPT_BACKUP/freertos-colibri-imx7/examples/imx7_colibri_m4/demo_apps/rpmsg/str_echo_freertos/i2c.c.obj
                0x1fffce04                setPin
 .text.pointPreviousPlace
                0x1fffceac       0x1c CMakeFiles/str_echo_freertos.dir/home/aselsan/Desktop/GPT_BACKUP/freertos-colibri-imx7/examples/imx7_colibri_m4/demo_apps/rpmsg/str_echo_freertos/comm_skb.c.obj
                0x1fffceac                pointPreviousPlace
 .text.pointNextPlace
                0x1fffcec8       0x1c CMakeFiles/str_echo_freertos.dir/home/aselsan/Desktop/GPT_BACKUP/freertos-colibri-imx7/examples/imx7_colibri_m4/demo_apps/rpmsg/str_echo_freertos/comm_skb.c.obj
                0x1fffcec8                pointNextPlace
 .text.skb_comm_semaphore_init
                0x1fffcee4       0x5c CMakeFiles/str_echo_freertos.dir/home/aselsan/Desktop/GPT_BACKUP/freertos-colibri-imx7/examples/imx7_colibri_m4/demo_apps/rpmsg/str_echo_freertos/comm_skb.c.obj
                0x1fffcee4                skb_comm_semaphore_init
 .text.get_packet_from_a7_rx_buffer
                0x1fffcf40      0x10c CMakeFiles/str_echo_freertos.dir/home/aselsan/Desktop/GPT_BACKUP/freertos-colibri-imx7/examples/imx7_colibri_m4/demo_apps/rpmsg/str_echo_freertos/comm_skb.c.obj
                0x1fffcf40                get_packet_from_a7_rx_buffer
 .text.task_fill_skb_rx_buf
                0x1fffd04c       0x64 CMakeFiles/str_echo_freertos.dir/home/aselsan/Desktop/GPT_BACKUP/freertos-colibri-imx7/examples/imx7_colibri_m4/demo_apps/rpmsg/str_echo_freertos/comm_skb.c.obj
                0x1fffd04c                task_fill_skb_rx_buf
 .text.decode_binary
                0x1fffd0b0       0x28 CMakeFiles/str_echo_freertos.dir/home/aselsan/Desktop/GPT_BACKUP/freertos-colibri-imx7/examples/imx7_colibri_m4/demo_apps/rpmsg/str_echo_freertos/comm_skb.c.obj
                0x1fffd0b0                decode_binary
 .text.process_skb_packet
                0x1fffd0d8       0x90 CMakeFiles/str_echo_freertos.dir/home/aselsan/Desktop/GPT_BACKUP/freertos-colibri-imx7/examples/imx7_colibri_m4/demo_apps/rpmsg/str_echo_freertos/comm_skb.c.obj
                0x1fffd0d8                process_skb_packet
 .text.task_parse_skb_rx_buf
                0x1fffd168      0x77c CMakeFiles/str_echo_freertos.dir/home/aselsan/Desktop/GPT_BACKUP/freertos-colibri-imx7/examples/imx7_colibri_m4/demo_apps/rpmsg/str_echo_freertos/comm_skb.c.obj
                0x1fffd168                task_parse_skb_rx_buf
 .text.process_a7_packet
                0x1fffd8e4       0x90 CMakeFiles/str_echo_freertos.dir/home/aselsan/Desktop/GPT_BACKUP/freertos-colibri-imx7/examples/imx7_colibri_m4/demo_apps/rpmsg/str_echo_freertos/comm_skb.c.obj
                0x1fffd8e4                process_a7_packet
 .text.task_send_data_to_skb
                0x1fffd974      0x2d8 CMakeFiles/str_echo_freertos.dir/home/aselsan/Desktop/GPT_BACKUP/freertos-colibri-imx7/examples/imx7_colibri_m4/demo_apps/rpmsg/str_echo_freertos/comm_skb.c.obj
                0x1fffd974                task_send_data_to_skb
 .text.__assert_func
                0x1fffdc4c       0x38 /home/aselsan/Desktop/IMX7/toolchain/gcc-arm-none-eabi-4_9-2015q3/bin/../lib/gcc/arm-none-eabi/4.9.3/../../../../arm-none-eabi/lib/armv7e-m/fpu/libc_nano.a(lib_a-assert.o)
                0x1fffdc4c                __assert_func
 .text.exit     0x1fffdc84       0x28 /home/aselsan/Desktop/IMX7/toolchain/gcc-arm-none-eabi-4_9-2015q3/bin/../lib/gcc/arm-none-eabi/4.9.3/../../../../arm-none-eabi/lib/armv7e-m/fpu/libc_nano.a(lib_a-exit.o)
                0x1fffdc84                exit
 .text.fprintf  0x1fffdcac       0x24 /home/aselsan/Desktop/IMX7/toolchain/gcc-arm-none-eabi-4_9-2015q3/bin/../lib/gcc/arm-none-eabi/4.9.3/../../../../arm-none-eabi/lib/armv7e-m/fpu/libc_nano.a(lib_a-fprintf.o)
                0x1fffdcac                fprintf
                0x1fffdcac                fiprintf
 .text.__libc_init_array
                0x1fffdcd0       0x4c /home/aselsan/Desktop/IMX7/toolchain/gcc-arm-none-eabi-4_9-2015q3/bin/../lib/gcc/arm-none-eabi/4.9.3/../../../../arm-none-eabi/lib/armv7e-m/fpu/libc_nano.a(lib_a-init.o)
                0x1fffdcd0                __libc_init_array
 .text.memcpy   0x1fffdd1c       0x16 /home/aselsan/Desktop/IMX7/toolchain/gcc-arm-none-eabi-4_9-2015q3/bin/../lib/gcc/arm-none-eabi/4.9.3/../../../../arm-none-eabi/lib/armv7e-m/fpu/libc_nano.a(lib_a-memcpy.o)
                0x1fffdd1c                memcpy
 .text.memset   0x1fffdd32       0x10 /home/aselsan/Desktop/IMX7/toolchain/gcc-arm-none-eabi-4_9-2015q3/bin/../lib/gcc/arm-none-eabi/4.9.3/../../../../arm-none-eabi/lib/armv7e-m/fpu/libc_nano.a(lib_a-memset.o)
                0x1fffdd32                memset
 .text.__sfputc_r
                0x1fffdd42       0x2c /home/aselsan/Desktop/IMX7/toolchain/gcc-arm-none-eabi-4_9-2015q3/bin/../lib/gcc/arm-none-eabi/4.9.3/../../../../arm-none-eabi/lib/armv7e-m/fpu/libc_nano.a(lib_a-nano-vfprintf.o)
 .text.__sfputs_r
                0x1fffdd6e       0x24 /home/aselsan/Desktop/IMX7/toolchain/gcc-arm-none-eabi-4_9-2015q3/bin/../lib/gcc/arm-none-eabi/4.9.3/../../../../arm-none-eabi/lib/armv7e-m/fpu/libc_nano.a(lib_a-nano-vfprintf.o)
                0x1fffdd6e                __sfputs_r
 *fill*         0x1fffdd92        0x2 
 .text._vfprintf_r
                0x1fffdd94      0x210 /home/aselsan/Desktop/IMX7/toolchain/gcc-arm-none-eabi-4_9-2015q3/bin/../lib/gcc/arm-none-eabi/4.9.3/../../../../arm-none-eabi/lib/armv7e-m/fpu/libc_nano.a(lib_a-nano-vfprintf.o)
                0x1fffdd94                _vfiprintf_r
                0x1fffdd94                _vfprintf_r
 .text._printf_common
                0x1fffdfa4       0xea /home/aselsan/Desktop/IMX7/toolchain/gcc-arm-none-eabi-4_9-2015q3/bin/../lib/gcc/arm-none-eabi/4.9.3/../../../../arm-none-eabi/lib/armv7e-m/fpu/libc_nano.a(lib_a-nano-vfprintf_i.o)
                0x1fffdfa4                _printf_common
 *fill*         0x1fffe08e        0x2 
 .text._printf_i
                0x1fffe090      0x240 /home/aselsan/Desktop/IMX7/toolchain/gcc-arm-none-eabi-4_9-2015q3/bin/../lib/gcc/arm-none-eabi/4.9.3/../../../../arm-none-eabi/lib/armv7e-m/fpu/libc_nano.a(lib_a-nano-vfprintf_i.o)
                0x1fffe090                _printf_i
 .text.strlen   0x1fffe2d0       0x10 /home/aselsan/Desktop/IMX7/toolchain/gcc-arm-none-eabi-4_9-2015q3/bin/../lib/gcc/arm-none-eabi/4.9.3/../../../../arm-none-eabi/lib/armv7e-m/fpu/libc_nano.a(lib_a-strlen.o)
                0x1fffe2d0                strlen
 .text.strncmp  0x1fffe2e0       0x34 /home/aselsan/Desktop/IMX7/toolchain/gcc-arm-none-eabi-4_9-2015q3/bin/../lib/gcc/arm-none-eabi/4.9.3/../../../../arm-none-eabi/lib/armv7e-m/fpu/libc_nano.a(lib_a-strncmp.o)
                0x1fffe2e0                strncmp
 .text.strncpy  0x1fffe314       0x24 /home/aselsan/Desktop/IMX7/toolchain/gcc-arm-none-eabi-4_9-2015q3/bin/../lib/gcc/arm-none-eabi/4.9.3/../../../../arm-none-eabi/lib/armv7e-m/fpu/libc_nano.a(lib_a-strncpy.o)
                0x1fffe314                strncpy
 .text.__swbuf_r
                0x1fffe338       0xa8 /home/aselsan/Desktop/IMX7/toolchain/gcc-arm-none-eabi-4_9-2015q3/bin/../lib/gcc/arm-none-eabi/4.9.3/../../../../arm-none-eabi/lib/armv7e-m/fpu/libc_nano.a(lib_a-wbuf.o)
                0x1fffe338                __swbuf_r
 .text.__swsetup_r
                0x1fffe3e0       0xd8 /home/aselsan/Desktop/IMX7/toolchain/gcc-arm-none-eabi-4_9-2015q3/bin/../lib/gcc/arm-none-eabi/4.9.3/../../../../arm-none-eabi/lib/armv7e-m/fpu/libc_nano.a(lib_a-wsetup.o)
                0x1fffe3e0                __swsetup_r
 .text.abort    0x1fffe4b8        0xe /home/aselsan/Desktop/IMX7/toolchain/gcc-arm-none-eabi-4_9-2015q3/bin/../lib/gcc/arm-none-eabi/4.9.3/../../../../arm-none-eabi/lib/armv7e-m/fpu/libc_nano.a(lib_a-abort.o)
                0x1fffe4b8                abort
 .text.__sflush_r
                0x1fffe4c6      0x108 /home/aselsan/Desktop/IMX7/toolchain/gcc-arm-none-eabi-4_9-2015q3/bin/../lib/gcc/arm-none-eabi/4.9.3/../../../../arm-none-eabi/lib/armv7e-m/fpu/libc_nano.a(lib_a-fflush.o)
                0x1fffe4c6                __sflush_r
 *fill*         0x1fffe5ce        0x2 
 .text._fflush_r
                0x1fffe5d0       0x54 /home/aselsan/Desktop/IMX7/toolchain/gcc-arm-none-eabi-4_9-2015q3/bin/../lib/gcc/arm-none-eabi/4.9.3/../../../../arm-none-eabi/lib/armv7e-m/fpu/libc_nano.a(lib_a-fflush.o)
                0x1fffe5d0                _fflush_r
 .text._cleanup_r
                0x1fffe624        0xc /home/aselsan/Desktop/IMX7/toolchain/gcc-arm-none-eabi-4_9-2015q3/bin/../lib/gcc/arm-none-eabi/4.9.3/../../../../arm-none-eabi/lib/armv7e-m/fpu/libc_nano.a(lib_a-findfp.o)
                0x1fffe624                _cleanup_r
 .text.std.isra.0
                0x1fffe630       0x48 /home/aselsan/Desktop/IMX7/toolchain/gcc-arm-none-eabi-4_9-2015q3/bin/../lib/gcc/arm-none-eabi/4.9.3/../../../../arm-none-eabi/lib/armv7e-m/fpu/libc_nano.a(lib_a-findfp.o)
 .text.__sfmoreglue
                0x1fffe678       0x2c /home/aselsan/Desktop/IMX7/toolchain/gcc-arm-none-eabi-4_9-2015q3/bin/../lib/gcc/arm-none-eabi/4.9.3/../../../../arm-none-eabi/lib/armv7e-m/fpu/libc_nano.a(lib_a-findfp.o)
                0x1fffe678                __sfmoreglue
 .text.__sinit  0x1fffe6a4       0x60 /home/aselsan/Desktop/IMX7/toolchain/gcc-arm-none-eabi-4_9-2015q3/bin/../lib/gcc/arm-none-eabi/4.9.3/../../../../arm-none-eabi/lib/armv7e-m/fpu/libc_nano.a(lib_a-findfp.o)
                0x1fffe6a4                __sinit
 .text.__sfp    0x1fffe704       0x74 /home/aselsan/Desktop/IMX7/toolchain/gcc-arm-none-eabi-4_9-2015q3/bin/../lib/gcc/arm-none-eabi/4.9.3/../../../../arm-none-eabi/lib/armv7e-m/fpu/libc_nano.a(lib_a-findfp.o)
                0x1fffe704                __sfp
 .text._fwalk_reent
                0x1fffe778       0x3c /home/aselsan/Desktop/IMX7/toolchain/gcc-arm-none-eabi-4_9-2015q3/bin/../lib/gcc/arm-none-eabi/4.9.3/../../../../arm-none-eabi/lib/armv7e-m/fpu/libc_nano.a(lib_a-fwalk.o)
                0x1fffe778                _fwalk_reent
 .text.__smakebuf_r
                0x1fffe7b4       0x9c /home/aselsan/Desktop/IMX7/toolchain/gcc-arm-none-eabi-4_9-2015q3/bin/../lib/gcc/arm-none-eabi/4.9.3/../../../../arm-none-eabi/lib/armv7e-m/fpu/libc_nano.a(lib_a-makebuf.o)
                0x1fffe7b4                __smakebuf_r
 .text.memchr   0x1fffe850       0x1e /home/aselsan/Desktop/IMX7/toolchain/gcc-arm-none-eabi-4_9-2015q3/bin/../lib/gcc/arm-none-eabi/4.9.3/../../../../arm-none-eabi/lib/armv7e-m/fpu/libc_nano.a(lib_a-memchr.o)
                0x1fffe850                memchr
 *fill*         0x1fffe86e        0x2 
 .text._free_r  0x1fffe870       0x88 /home/aselsan/Desktop/IMX7/toolchain/gcc-arm-none-eabi-4_9-2015q3/bin/../lib/gcc/arm-none-eabi/4.9.3/../../../../arm-none-eabi/lib/armv7e-m/fpu/libc_nano.a(lib_a-nano-freer.o)
                0x1fffe870                _free_r
 .text._malloc_r
                0x1fffe8f8       0xac /home/aselsan/Desktop/IMX7/toolchain/gcc-arm-none-eabi-4_9-2015q3/bin/../lib/gcc/arm-none-eabi/4.9.3/../../../../arm-none-eabi/lib/armv7e-m/fpu/libc_nano.a(lib_a-nano-mallocr.o)
                0x1fffe8f8                _malloc_r
 .text._sbrk_r  0x1fffe9a4       0x20 /home/aselsan/Desktop/IMX7/toolchain/gcc-arm-none-eabi-4_9-2015q3/bin/../lib/gcc/arm-none-eabi/4.9.3/../../../../arm-none-eabi/lib/armv7e-m/fpu/libc_nano.a(lib_a-sbrkr.o)
                0x1fffe9a4                _sbrk_r
 .text._raise_r
                0x1fffe9c4       0x50 /home/aselsan/Desktop/IMX7/toolchain/gcc-arm-none-eabi-4_9-2015q3/bin/../lib/gcc/arm-none-eabi/4.9.3/../../../../arm-none-eabi/lib/armv7e-m/fpu/libc_nano.a(lib_a-signal.o)
                0x1fffe9c4                _raise_r
 .text.raise    0x1fffea14       0x10 /home/aselsan/Desktop/IMX7/toolchain/gcc-arm-none-eabi-4_9-2015q3/bin/../lib/gcc/arm-none-eabi/4.9.3/../../../../arm-none-eabi/lib/armv7e-m/fpu/libc_nano.a(lib_a-signal.o)
                0x1fffea14                raise
 .text._kill_r  0x1fffea24       0x24 /home/aselsan/Desktop/IMX7/toolchain/gcc-arm-none-eabi-4_9-2015q3/bin/../lib/gcc/arm-none-eabi/4.9.3/../../../../arm-none-eabi/lib/armv7e-m/fpu/libc_nano.a(lib_a-signalr.o)
                0x1fffea24                _kill_r
 .text._getpid_r
                0x1fffea48        0x4 /home/aselsan/Desktop/IMX7/toolchain/gcc-arm-none-eabi-4_9-2015q3/bin/../lib/gcc/arm-none-eabi/4.9.3/../../../../arm-none-eabi/lib/armv7e-m/fpu/libc_nano.a(lib_a-signalr.o)
                0x1fffea48                _getpid_r
 .text.__sread  0x1fffea4c       0x22 /home/aselsan/Desktop/IMX7/toolchain/gcc-arm-none-eabi-4_9-2015q3/bin/../lib/gcc/arm-none-eabi/4.9.3/../../../../arm-none-eabi/lib/armv7e-m/fpu/libc_nano.a(lib_a-stdio.o)
                0x1fffea4c                __sread
 .text.__swrite
                0x1fffea6e       0x38 /home/aselsan/Desktop/IMX7/toolchain/gcc-arm-none-eabi-4_9-2015q3/bin/../lib/gcc/arm-none-eabi/4.9.3/../../../../arm-none-eabi/lib/armv7e-m/fpu/libc_nano.a(lib_a-stdio.o)
                0x1fffea6e                __swrite
 .text.__sseek  0x1fffeaa6       0x24 /home/aselsan/Desktop/IMX7/toolchain/gcc-arm-none-eabi-4_9-2015q3/bin/../lib/gcc/arm-none-eabi/4.9.3/../../../../arm-none-eabi/lib/armv7e-m/fpu/libc_nano.a(lib_a-stdio.o)
                0x1fffeaa6                __sseek
 .text.__sclose
                0x1fffeaca        0x8 /home/aselsan/Desktop/IMX7/toolchain/gcc-arm-none-eabi-4_9-2015q3/bin/../lib/gcc/arm-none-eabi/4.9.3/../../../../arm-none-eabi/lib/armv7e-m/fpu/libc_nano.a(lib_a-stdio.o)
                0x1fffeaca                __sclose
 *fill*         0x1fffead2        0x2 
 .text._write_r
                0x1fffead4       0x24 /home/aselsan/Desktop/IMX7/toolchain/gcc-arm-none-eabi-4_9-2015q3/bin/../lib/gcc/arm-none-eabi/4.9.3/../../../../arm-none-eabi/lib/armv7e-m/fpu/libc_nano.a(lib_a-writer.o)
                0x1fffead4                _write_r
 .text._close_r
                0x1fffeaf8       0x20 /home/aselsan/Desktop/IMX7/toolchain/gcc-arm-none-eabi-4_9-2015q3/bin/../lib/gcc/arm-none-eabi/4.9.3/../../../../arm-none-eabi/lib/armv7e-m/fpu/libc_nano.a(lib_a-closer.o)
                0x1fffeaf8                _close_r
 .text._fstat_r
                0x1fffeb18       0x24 /home/aselsan/Desktop/IMX7/toolchain/gcc-arm-none-eabi-4_9-2015q3/bin/../lib/gcc/arm-none-eabi/4.9.3/../../../../arm-none-eabi/lib/armv7e-m/fpu/libc_nano.a(lib_a-fstatr.o)
                0x1fffeb18                _fstat_r
 .text._isatty_r
                0x1fffeb3c       0x20 /home/aselsan/Desktop/IMX7/toolchain/gcc-arm-none-eabi-4_9-2015q3/bin/../lib/gcc/arm-none-eabi/4.9.3/../../../../arm-none-eabi/lib/armv7e-m/fpu/libc_nano.a(lib_a-isattyr.o)
                0x1fffeb3c                _isatty_r
 .text._lseek_r
                0x1fffeb5c       0x24 /home/aselsan/Desktop/IMX7/toolchain/gcc-arm-none-eabi-4_9-2015q3/bin/../lib/gcc/arm-none-eabi/4.9.3/../../../../arm-none-eabi/lib/armv7e-m/fpu/libc_nano.a(lib_a-lseekr.o)
                0x1fffeb5c                _lseek_r
 .text._read_r  0x1fffeb80       0x24 /home/aselsan/Desktop/IMX7/toolchain/gcc-arm-none-eabi-4_9-2015q3/bin/../lib/gcc/arm-none-eabi/4.9.3/../../../../arm-none-eabi/lib/armv7e-m/fpu/libc_nano.a(lib_a-readr.o)
                0x1fffeb80                _read_r
 .text._close   0x1fffeba4       0x10 /home/aselsan/Desktop/IMX7/toolchain/gcc-arm-none-eabi-4_9-2015q3/bin/../lib/gcc/arm-none-eabi/4.9.3/../../../../arm-none-eabi/lib/armv7e-m/fpu/libnosys.a(close.o)
                0x1fffeba4                _close
 .text._fstat   0x1fffebb4       0x10 /home/aselsan/Desktop/IMX7/toolchain/gcc-arm-none-eabi-4_9-2015q3/bin/../lib/gcc/arm-none-eabi/4.9.3/../../../../arm-none-eabi/lib/armv7e-m/fpu/libnosys.a(fstat.o)
                0x1fffebb4                _fstat
 .text._getpid  0x1fffebc4       0x10 /home/aselsan/Desktop/IMX7/toolchain/gcc-arm-none-eabi-4_9-2015q3/bin/../lib/gcc/arm-none-eabi/4.9.3/../../../../arm-none-eabi/lib/armv7e-m/fpu/libnosys.a(getpid.o)
                0x1fffebc4                _getpid
 .text._isatty  0x1fffebd4       0x10 /home/aselsan/Desktop/IMX7/toolchain/gcc-arm-none-eabi-4_9-2015q3/bin/../lib/gcc/arm-none-eabi/4.9.3/../../../../arm-none-eabi/lib/armv7e-m/fpu/libnosys.a(isatty.o)
                0x1fffebd4                _isatty
 .text._kill    0x1fffebe4       0x10 /home/aselsan/Desktop/IMX7/toolchain/gcc-arm-none-eabi-4_9-2015q3/bin/../lib/gcc/arm-none-eabi/4.9.3/../../../../arm-none-eabi/lib/armv7e-m/fpu/libnosys.a(kill.o)
                0x1fffebe4                _kill
 .text._lseek   0x1fffebf4       0x10 /home/aselsan/Desktop/IMX7/toolchain/gcc-arm-none-eabi-4_9-2015q3/bin/../lib/gcc/arm-none-eabi/4.9.3/../../../../arm-none-eabi/lib/armv7e-m/fpu/libnosys.a(lseek.o)
                0x1fffebf4                _lseek
 .text._sbrk    0x1fffec04       0x1c /home/aselsan/Desktop/IMX7/toolchain/gcc-arm-none-eabi-4_9-2015q3/bin/../lib/gcc/arm-none-eabi/4.9.3/../../../../arm-none-eabi/lib/armv7e-m/fpu/libnosys.a(sbrk.o)
                0x1fffec04                _sbrk
 .text._exit    0x1fffec20        0x4 /home/aselsan/Desktop/IMX7/toolchain/gcc-arm-none-eabi-4_9-2015q3/bin/../lib/gcc/arm-none-eabi/4.9.3/../../../../arm-none-eabi/lib/armv7e-m/fpu/libnosys.a(_exit.o)
                0x1fffec20                _exit
 *(.rodata)
 .rodata        0x1fffec24        0x6 CMakeFiles/str_echo_freertos.dir/home/aselsan/Desktop/GPT_BACKUP/freertos-colibri-imx7/examples/imx7_colibri_m4/demo_apps/rpmsg/str_echo_freertos/timer.c.obj
 *fill*         0x1fffec2a        0x2 
 .rodata        0x1fffec2c        0x7 CMakeFiles/str_echo_freertos.dir/home/aselsan/Desktop/GPT_BACKUP/freertos-colibri-imx7/examples/imx7_colibri_m4/demo_apps/rpmsg/str_echo_freertos/comm_skb.c.obj
 *(.rodata*)
 *fill*         0x1fffec33        0x1 
 .rodata.__func__.5884
                0x1fffec34        0x8 CMakeFiles/str_echo_freertos.dir/home/aselsan/Desktop/GPT_BACKUP/freertos-colibri-imx7/middleware/multicore/open-amp/porting/env/freertos/rpmsg_porting.c.obj
 .rodata.__func__.5851
                0x1fffec3c       0x11 CMakeFiles/str_echo_freertos.dir/home/aselsan/Desktop/GPT_BACKUP/freertos-colibri-imx7/middleware/multicore/open-amp/porting/env/freertos/rpmsg_porting.c.obj
 *fill*         0x1fffec4d        0x3 
 .rodata.str1.4
                0x1fffec50       0xd2 CMakeFiles/str_echo_freertos.dir/home/aselsan/Desktop/GPT_BACKUP/freertos-colibri-imx7/middleware/multicore/open-amp/porting/env/freertos/rpmsg_porting.c.obj
 *fill*         0x1fffed22        0x2 
 .rodata.__func__.5865
                0x1fffed24       0x15 CMakeFiles/str_echo_freertos.dir/home/aselsan/Desktop/GPT_BACKUP/freertos-colibri-imx7/middleware/multicore/open-amp/porting/env/freertos/rpmsg_porting.c.obj
 *fill*         0x1fffed39        0x3 
 .rodata.__func__.5762
                0x1fffed3c        0xb CMakeFiles/str_echo_freertos.dir/home/aselsan/Desktop/GPT_BACKUP/freertos-colibri-imx7/middleware/multicore/open-amp/porting/env/freertos/rpmsg_porting.c.obj
 *fill*         0x1fffed47        0x1 
 .rodata.__func__.5759
                0x1fffed48        0x9 CMakeFiles/str_echo_freertos.dir/home/aselsan/Desktop/GPT_BACKUP/freertos-colibri-imx7/middleware/multicore/open-amp/porting/env/freertos/rpmsg_porting.c.obj
 *fill*         0x1fffed51        0x3 
 .rodata.__func__.9329
                0x1fffed54       0x1a CMakeFiles/str_echo_freertos.dir/home/aselsan/Desktop/GPT_BACKUP/freertos-colibri-imx7/middleware/multicore/open-amp/porting/imx7d_m4/platform.c.obj
 *fill*         0x1fffed6e        0x2 
 .rodata.str1.4
                0x1fffed70      0x111 CMakeFiles/str_echo_freertos.dir/home/aselsan/Desktop/GPT_BACKUP/freertos-colibri-imx7/middleware/multicore/open-amp/porting/imx7d_m4/platform.c.obj
                                0x115 (size before relaxing)
 *fill*         0x1fffee81        0x3 
 .rodata.__func__.9350
                0x1fffee84       0x1f CMakeFiles/str_echo_freertos.dir/home/aselsan/Desktop/GPT_BACKUP/freertos-colibri-imx7/middleware/multicore/open-amp/porting/imx7d_m4/platform.c.obj
 *fill*         0x1fffeea3        0x1 
 .rodata.__func__.9337
                0x1fffeea4       0x1b CMakeFiles/str_echo_freertos.dir/home/aselsan/Desktop/GPT_BACKUP/freertos-colibri-imx7/middleware/multicore/open-amp/porting/imx7d_m4/platform.c.obj
 *fill*         0x1fffeebf        0x1 
 .rodata.__func__.9297
                0x1fffeec0        0xa CMakeFiles/str_echo_freertos.dir/home/aselsan/Desktop/GPT_BACKUP/freertos-colibri-imx7/middleware/multicore/open-amp/porting/imx7d_m4/platform.c.obj
 *fill*         0x1fffeeca        0x2 
 .rodata.__func__.9301
                0x1fffeecc        0xe CMakeFiles/str_echo_freertos.dir/home/aselsan/Desktop/GPT_BACKUP/freertos-colibri-imx7/middleware/multicore/open-amp/porting/imx7d_m4/platform.c.obj
 *fill*         0x1fffeeda        0x2 
 .rodata.__func__.9346
                0x1fffeedc       0x1e CMakeFiles/str_echo_freertos.dir/home/aselsan/Desktop/GPT_BACKUP/freertos-colibri-imx7/middleware/multicore/open-amp/porting/imx7d_m4/platform.c.obj
 *fill*         0x1fffeefa        0x2 
 .rodata.str1.4
                0x1fffeefc        0xe CMakeFiles/str_echo_freertos.dir/home/aselsan/Desktop/GPT_BACKUP/freertos-colibri-imx7/middleware/multicore/open-amp/rpmsg/rpmsg_core.c.obj
 *fill*         0x1fffef0a        0x2 
 .rodata.__func__.5960
                0x1fffef0c       0x1b CMakeFiles/str_echo_freertos.dir/home/aselsan/Desktop/GPT_BACKUP/freertos-colibri-imx7/middleware/multicore/open-amp/rpmsg/rpmsg_rtos.c.obj
 *fill*         0x1fffef27        0x1 
 .rodata.str1.4
                0x1fffef28       0xad CMakeFiles/str_echo_freertos.dir/home/aselsan/Desktop/GPT_BACKUP/freertos-colibri-imx7/middleware/multicore/open-amp/rpmsg/rpmsg_rtos.c.obj
 *fill*         0x1fffefd5        0x3 
 .rodata.__func__.5964
                0x1fffefd8       0x1b CMakeFiles/str_echo_freertos.dir/home/aselsan/Desktop/GPT_BACKUP/freertos-colibri-imx7/middleware/multicore/open-amp/rpmsg/rpmsg_rtos.c.obj
 *fill*         0x1fffeff3        0x1 
 .rodata.__func__.5973
                0x1fffeff4       0x13 CMakeFiles/str_echo_freertos.dir/home/aselsan/Desktop/GPT_BACKUP/freertos-colibri-imx7/middleware/multicore/open-amp/rpmsg/rpmsg_rtos.c.obj
 *fill*         0x1ffff007        0x1 
 .rodata.__func__.8052
                0x1ffff008       0x13 CMakeFiles/str_echo_freertos.dir/home/aselsan/Desktop/GPT_BACKUP/freertos-colibri-imx7/platform/drivers/src/ccm_imx7d.c.obj
 *fill*         0x1ffff01b        0x1 
 .rodata.__func__.8060
                0x1ffff01c        0xf CMakeFiles/str_echo_freertos.dir/home/aselsan/Desktop/GPT_BACKUP/freertos-colibri-imx7/platform/drivers/src/ccm_imx7d.c.obj
 *fill*         0x1ffff02b        0x1 
 .rodata.str1.4
                0x1ffff02c       0x78 CMakeFiles/str_echo_freertos.dir/home/aselsan/Desktop/GPT_BACKUP/freertos-colibri-imx7/platform/drivers/src/ccm_imx7d.c.obj
                                 0x8f (size before relaxing)
 .rodata.__func__.7883
                0x1ffff0a4        0xb CMakeFiles/str_echo_freertos.dir/home/aselsan/Desktop/GPT_BACKUP/freertos-colibri-imx7/platform/drivers/src/mu_imx.c.obj
 *fill*         0x1ffff0af        0x1 
 .rodata.__func__.7893
                0x1ffff0b0       0x11 CMakeFiles/str_echo_freertos.dir/home/aselsan/Desktop/GPT_BACKUP/freertos-colibri-imx7/platform/drivers/src/mu_imx.c.obj
 *fill*         0x1ffff0c1        0x3 
 .rodata.str1.4
                0x1ffff0c4       0x87 CMakeFiles/str_echo_freertos.dir/home/aselsan/Desktop/GPT_BACKUP/freertos-colibri-imx7/platform/drivers/src/mu_imx.c.obj
 *fill*         0x1ffff14b        0x1 
 .rodata.str1.4
                0x1ffff14c      0x146 CMakeFiles/str_echo_freertos.dir/home/aselsan/Desktop/GPT_BACKUP/freertos-colibri-imx7/platform/drivers/src/uart_imx.c.obj
 *fill*         0x1ffff292        0x2 
 .rodata.__func__.8008
                0x1ffff294        0xa CMakeFiles/str_echo_freertos.dir/home/aselsan/Desktop/GPT_BACKUP/freertos-colibri-imx7/platform/drivers/src/uart_imx.c.obj
 *fill*         0x1ffff29e        0x2 
 .rodata.__func__.8095
                0x1ffff2a0       0x12 CMakeFiles/str_echo_freertos.dir/home/aselsan/Desktop/GPT_BACKUP/freertos-colibri-imx7/platform/drivers/src/uart_imx.c.obj
 *fill*         0x1ffff2b2        0x2 
 .rodata.__func__.7913
                0x1ffff2b4       0x13 CMakeFiles/str_echo_freertos.dir/home/aselsan/Desktop/GPT_BACKUP/freertos-colibri-imx7/platform/drivers/src/gpt.c.obj
 *fill*         0x1ffff2c7        0x1 
 .rodata.str1.4
                0x1ffff2c8       0x70 CMakeFiles/str_echo_freertos.dir/home/aselsan/Desktop/GPT_BACKUP/freertos-colibri-imx7/platform/drivers/src/gpt.c.obj
                                 0x7c (size before relaxing)
 .rodata.__func__.7908
                0x1ffff338        0x9 CMakeFiles/str_echo_freertos.dir/home/aselsan/Desktop/GPT_BACKUP/freertos-colibri-imx7/platform/drivers/src/gpt.c.obj
 *fill*         0x1ffff341        0x3 
 .rodata.__func__.7837
                0x1ffff344       0x14 CMakeFiles/str_echo_freertos.dir/home/aselsan/Desktop/GPT_BACKUP/freertos-colibri-imx7/platform/drivers/src/gpio_imx.c.obj
 .rodata.str1.4
                0x1ffff358       0x61 CMakeFiles/str_echo_freertos.dir/home/aselsan/Desktop/GPT_BACKUP/freertos-colibri-imx7/platform/drivers/src/gpio_imx.c.obj
 *fill*         0x1ffff3b9        0x3 
 .rodata.i2cClkDivTab
                0x1ffff3bc      0x190 CMakeFiles/str_echo_freertos.dir/home/aselsan/Desktop/GPT_BACKUP/freertos-colibri-imx7/platform/drivers/src/i2c_imx.c.obj
 .rodata.__func__.7828
                0x1ffff54c        0x9 CMakeFiles/str_echo_freertos.dir/home/aselsan/Desktop/GPT_BACKUP/freertos-colibri-imx7/platform/drivers/src/i2c_imx.c.obj
 *fill*         0x1ffff555        0x3 
 .rodata.__func__.7788
                0x1ffff558       0x14 CMakeFiles/str_echo_freertos.dir/home/aselsan/Desktop/GPT_BACKUP/freertos-colibri-imx7/platform/drivers/src/i2c_imx.c.obj
 .rodata.__func__.7839
                0x1ffff56c       0x10 CMakeFiles/str_echo_freertos.dir/home/aselsan/Desktop/GPT_BACKUP/freertos-colibri-imx7/platform/drivers/src/i2c_imx.c.obj
 .rodata.str1.4
                0x1ffff57c      0x12c CMakeFiles/str_echo_freertos.dir/home/aselsan/Desktop/GPT_BACKUP/freertos-colibri-imx7/platform/drivers/src/i2c_imx.c.obj
                                0x138 (size before relaxing)
 .rodata.str1.4
                0x1ffff6a8        0x5 CMakeFiles/str_echo_freertos.dir/home/aselsan/Desktop/GPT_BACKUP/freertos-colibri-imx7/rtos/FreeRTOS/Source/tasks.c.obj
 *fill*         0x1ffff6ad        0x3 
 .rodata.str1.4
                0x1ffff6b0       0x57 CMakeFiles/str_echo_freertos.dir/home/aselsan/Desktop/GPT_BACKUP/freertos-colibri-imx7/examples/imx7_colibri_m4/board.c.obj
 *fill*         0x1ffff707        0x1 
 .rodata.str1.4
                0x1ffff708       0xa4 CMakeFiles/str_echo_freertos.dir/home/aselsan/Desktop/GPT_BACKUP/freertos-colibri-imx7/examples/imx7_colibri_m4/gpio_pins.c.obj
 .rodata.str1.4
                0x1ffff7ac      0x14d CMakeFiles/str_echo_freertos.dir/home/aselsan/Desktop/GPT_BACKUP/freertos-colibri-imx7/examples/imx7_colibri_m4/pin_mux.c.obj
 *fill*         0x1ffff8f9        0x3 
 .rodata.str1.4
                0x1ffff8fc       0x1e CMakeFiles/str_echo_freertos.dir/home/aselsan/Desktop/GPT_BACKUP/freertos-colibri-imx7/examples/imx7_colibri_m4/demo_apps/rpmsg/str_echo_freertos/hardware_init.c.obj
                                 0x76 (size before relaxing)
 *fill*         0x1ffff91a        0x2 
 .rodata.str1.4
                0x1ffff91c       0x5a CMakeFiles/str_echo_freertos.dir/home/aselsan/Desktop/GPT_BACKUP/freertos-colibri-imx7/examples/imx7_colibri_m4/demo_apps/rpmsg/str_echo_freertos/str_echo_freertos.c.obj
 *fill*         0x1ffff976        0x2 
 .rodata.str1.4
                0x1ffff978        0x6 CMakeFiles/str_echo_freertos.dir/home/aselsan/Desktop/GPT_BACKUP/freertos-colibri-imx7/examples/imx7_colibri_m4/demo_apps/rpmsg/str_echo_freertos/timer.c.obj
                                 0x5f (size before relaxing)
 *fill*         0x1ffff97e        0x2 
 .rodata.str1.4
                0x1ffff980       0xdb CMakeFiles/str_echo_freertos.dir/home/aselsan/Desktop/GPT_BACKUP/freertos-colibri-imx7/examples/imx7_colibri_m4/demo_apps/rpmsg/str_echo_freertos/gpio.c.obj
                                 0xe5 (size before relaxing)
 *fill*         0x1ffffa5b        0x1 
 .rodata.str1.4
                0x1ffffa5c       0x34 CMakeFiles/str_echo_freertos.dir/home/aselsan/Desktop/GPT_BACKUP/freertos-colibri-imx7/examples/imx7_colibri_m4/demo_apps/rpmsg/str_echo_freertos/comm_skb.c.obj
                                 0x33 (size before relaxing)
 .rodata.str1.1
                0x1ffffa90       0x3c /home/aselsan/Desktop/IMX7/toolchain/gcc-arm-none-eabi-4_9-2015q3/bin/../lib/gcc/arm-none-eabi/4.9.3/../../../../arm-none-eabi/lib/armv7e-m/fpu/libc_nano.a(lib_a-assert.o)
                                 0x3d (size before relaxing)
 .rodata.str1.1
                0x1ffffacc        0x2 /home/aselsan/Desktop/IMX7/toolchain/gcc-arm-none-eabi-4_9-2015q3/bin/../lib/gcc/arm-none-eabi/4.9.3/../../../../arm-none-eabi/lib/armv7e-m/fpu/libc_nano.a(lib_a-impure.o)
 *fill*         0x1fffface        0x2 
 .rodata._global_impure_ptr
                0x1ffffad0        0x4 /home/aselsan/Desktop/IMX7/toolchain/gcc-arm-none-eabi-4_9-2015q3/bin/../lib/gcc/arm-none-eabi/4.9.3/../../../../arm-none-eabi/lib/armv7e-m/fpu/libc_nano.a(lib_a-impure.o)
                0x1ffffad0                _global_impure_ptr
 .rodata.str1.1
                0x1ffffad4       0x11 /home/aselsan/Desktop/IMX7/toolchain/gcc-arm-none-eabi-4_9-2015q3/bin/../lib/gcc/arm-none-eabi/4.9.3/../../../../arm-none-eabi/lib/armv7e-m/fpu/libc_nano.a(lib_a-nano-vfprintf.o)
 .rodata.str1.1
                0x1ffffae5       0x22 /home/aselsan/Desktop/IMX7/toolchain/gcc-arm-none-eabi-4_9-2015q3/bin/../lib/gcc/arm-none-eabi/4.9.3/../../../../arm-none-eabi/lib/armv7e-m/fpu/libc_nano.a(lib_a-nano-vfprintf_i.o)
 *fill*         0x1ffffb07        0x1 
 .rodata.__sf_fake_stdin
                0x1ffffb08       0x20 /home/aselsan/Desktop/IMX7/toolchain/gcc-arm-none-eabi-4_9-2015q3/bin/../lib/gcc/arm-none-eabi/4.9.3/../../../../arm-none-eabi/lib/armv7e-m/fpu/libc_nano.a(lib_a-findfp.o)
                0x1ffffb08                __sf_fake_stdin
 .rodata.__sf_fake_stdout
                0x1ffffb28       0x20 /home/aselsan/Desktop/IMX7/toolchain/gcc-arm-none-eabi-4_9-2015q3/bin/../lib/gcc/arm-none-eabi/4.9.3/../../../../arm-none-eabi/lib/armv7e-m/fpu/libc_nano.a(lib_a-findfp.o)
                0x1ffffb28                __sf_fake_stdout
 .rodata.__sf_fake_stderr
                0x1ffffb48       0x20 /home/aselsan/Desktop/IMX7/toolchain/gcc-arm-none-eabi-4_9-2015q3/bin/../lib/gcc/arm-none-eabi/4.9.3/../../../../arm-none-eabi/lib/armv7e-m/fpu/libc_nano.a(lib_a-findfp.o)
                0x1ffffb48                __sf_fake_stderr
 *(.glue_7)
 .glue_7        0x00000000        0x0 linker stubs
 *(.glue_7t)
 .glue_7t       0x00000000        0x0 linker stubs
 *(.eh_frame)
 .eh_frame      0x1ffffb68        0x0 /home/aselsan/Desktop/IMX7/toolchain/gcc-arm-none-eabi-4_9-2015q3/bin/../lib/gcc/arm-none-eabi/4.9.3/armv7e-m/fpu/crtbegin.o
 *(.init)
 .init          0x1ffffb68        0x4 /home/aselsan/Desktop/IMX7/toolchain/gcc-arm-none-eabi-4_9-2015q3/bin/../lib/gcc/arm-none-eabi/4.9.3/armv7e-m/fpu/crti.o
                0x1ffffb68                _init
 .init          0x1ffffb6c        0x8 /home/aselsan/Desktop/IMX7/toolchain/gcc-arm-none-eabi-4_9-2015q3/bin/../lib/gcc/arm-none-eabi/4.9.3/armv7e-m/fpu/crtn.o
 *(.fini)
 .fini          0x1ffffb74        0x4 /home/aselsan/Desktop/IMX7/toolchain/gcc-arm-none-eabi-4_9-2015q3/bin/../lib/gcc/arm-none-eabi/4.9.3/armv7e-m/fpu/crti.o
                0x1ffffb74                _fini
 .fini          0x1ffffb78        0x8 /home/aselsan/Desktop/IMX7/toolchain/gcc-arm-none-eabi-4_9-2015q3/bin/../lib/gcc/arm-none-eabi/4.9.3/armv7e-m/fpu/crtn.o
                0x1ffffb80                . = ALIGN (0x4)

.vfp11_veneer   0x1ffffb80        0x0
 .vfp11_veneer  0x00000000        0x0 linker stubs

.v4_bx          0x1ffffb80        0x0
 .v4_bx         0x00000000        0x0 linker stubs

.iplt           0x1ffffb80        0x0
 .iplt          0x00000000        0x0 /home/aselsan/Desktop/IMX7/toolchain/gcc-arm-none-eabi-4_9-2015q3/bin/../lib/gcc/arm-none-eabi/4.9.3/armv7e-m/fpu/crtbegin.o

.ARM.extab
 *(.ARM.extab* .gnu.linkonce.armextab.*)

.ARM            0x1ffffb80        0x8
                0x1ffffb80                __exidx_start = .
 *(.ARM.exidx*)
 .ARM.exidx     0x1ffffb80        0x8 /home/aselsan/Desktop/IMX7/toolchain/gcc-arm-none-eabi-4_9-2015q3/bin/../lib/gcc/arm-none-eabi/4.9.3/../../../../arm-none-eabi/lib/armv7e-m/fpu/crt0.o
                0x1ffffb88                __exidx_end = .

.rel.dyn        0x1ffffb88        0x0
 .rel.iplt      0x00000000        0x0 /home/aselsan/Desktop/IMX7/toolchain/gcc-arm-none-eabi-4_9-2015q3/bin/../lib/gcc/arm-none-eabi/4.9.3/armv7e-m/fpu/crtbegin.o

.ctors          0x1ffffb88        0x0
                0x1ffffb88                __CTOR_LIST__ = .
 *crtbegin.o(.ctors)
 *crtbegin?.o(.ctors)
 *(EXCLUDE_FILE(*crtend.o *crtend?.o) .ctors)
 *(SORT(.ctors.*))
 *(.ctors)
                0x1ffffb88                __CTOR_END__ = .

.dtors          0x1ffffb88        0x0
                0x1ffffb88                __DTOR_LIST__ = .
 *crtbegin.o(.dtors)
 *crtbegin?.o(.dtors)
 *(EXCLUDE_FILE(*crtend.o *crtend?.o) .dtors)
 *(SORT(.dtors.*))
 *(.dtors)
                0x1ffffb88                __DTOR_END__ = .

.preinit_array  0x1ffffb88        0x0
                0x1ffffb88                PROVIDE (__preinit_array_start, .)
 *(.preinit_array*)
                0x1ffffb88                PROVIDE (__preinit_array_end, .)

.init_array     0x1ffffb88        0x4
                0x1ffffb88                PROVIDE (__init_array_start, .)
 *(SORT(.init_array.*))
 *(.init_array*)
 .init_array    0x1ffffb88        0x4 /home/aselsan/Desktop/IMX7/toolchain/gcc-arm-none-eabi-4_9-2015q3/bin/../lib/gcc/arm-none-eabi/4.9.3/armv7e-m/fpu/crtbegin.o
                0x1ffffb8c                PROVIDE (__init_array_end, .)

.fini_array     0x1ffffb8c        0x4
                0x1ffffb8c                PROVIDE (__fini_array_start, .)
 *(SORT(.fini_array.*))
 *(.fini_array*)
 .fini_array    0x1ffffb8c        0x4 /home/aselsan/Desktop/IMX7/toolchain/gcc-arm-none-eabi-4_9-2015q3/bin/../lib/gcc/arm-none-eabi/4.9.3/armv7e-m/fpu/crtbegin.o
                0x1ffffb90                PROVIDE (__fini_array_end, .)

.data           0x20000000      0x2c8
                0x20000000                . = ALIGN (0x4)
 *(.data)
 *(.data*)
 .data.proc_ops
                0x20000000       0x1c CMakeFiles/str_echo_freertos.dir/home/aselsan/Desktop/GPT_BACKUP/freertos-colibri-imx7/middleware/multicore/open-amp/porting/imx7d_m4/platform.c.obj
                0x20000000                proc_ops
 .data.proc_table
                0x2000001c      0x120 CMakeFiles/str_echo_freertos.dir/home/aselsan/Desktop/GPT_BACKUP/freertos-colibri-imx7/middleware/multicore/open-amp/porting/imx7d_m4/platform_info.c.obj
                0x2000001c                proc_table
 .data.rpmsg_rdev_config_ops
                0x2000013c       0x24 CMakeFiles/str_echo_freertos.dir/home/aselsan/Desktop/GPT_BACKUP/freertos-colibri-imx7/middleware/multicore/open-amp/rpmsg/remote_device.c.obj
                0x2000013c                rpmsg_rdev_config_ops
 .data.uxCriticalNesting
                0x20000160        0x4 CMakeFiles/str_echo_freertos.dir/home/aselsan/Desktop/GPT_BACKUP/freertos-colibri-imx7/rtos/FreeRTOS/Source/portable/GCC/ARM_CM4F/port.c.obj
 .data.xFreeBytesRemaining
                0x20000164        0x4 CMakeFiles/str_echo_freertos.dir/home/aselsan/Desktop/GPT_BACKUP/freertos-colibri-imx7/rtos/FreeRTOS/Source/portable/MemMang/heap_2.c.obj
 .data.gpio_rotary_encoder_read_enable_output
                0x20000168       0x1c CMakeFiles/str_echo_freertos.dir/home/aselsan/Desktop/GPT_BACKUP/freertos-colibri-imx7/examples/imx7_colibri_m4/gpio_pins.c.obj
                0x20000168                gpio_rotary_encoder_read_enable_output
 .data.gpioLed_1
                0x20000184       0x1c CMakeFiles/str_echo_freertos.dir/home/aselsan/Desktop/GPT_BACKUP/freertos-colibri-imx7/examples/imx7_colibri_m4/gpio_pins.c.obj
                0x20000184                gpioLed_1
 .data.gpioLedCtrl
                0x200001a0       0x1c CMakeFiles/str_echo_freertos.dir/home/aselsan/Desktop/GPT_BACKUP/freertos-colibri-imx7/examples/imx7_colibri_m4/gpio_pins.c.obj
                0x200001a0                gpioLedCtrl
 .data.gpio_rotary_encoder_button
                0x200001bc       0x1c CMakeFiles/str_echo_freertos.dir/home/aselsan/Desktop/GPT_BACKUP/freertos-colibri-imx7/examples/imx7_colibri_m4/gpio_pins.c.obj
                0x200001bc                gpio_rotary_encoder_button
 .data.gpioKeyFunc1
                0x200001d8       0x1c CMakeFiles/str_echo_freertos.dir/home/aselsan/Desktop/GPT_BACKUP/freertos-colibri-imx7/examples/imx7_colibri_m4/gpio_pins.c.obj
                0x200001d8                gpioKeyFunc1
 .data.gpioI2c2En
                0x200001f4       0x1c CMakeFiles/str_echo_freertos.dir/home/aselsan/Desktop/GPT_BACKUP/freertos-colibri-imx7/examples/imx7_colibri_m4/gpio_pins.c.obj
                0x200001f4                gpioI2c2En
 .data.gpio_rotary_encoder_input_a
                0x20000210       0x1c CMakeFiles/str_echo_freertos.dir/home/aselsan/Desktop/GPT_BACKUP/freertos-colibri-imx7/examples/imx7_colibri_m4/gpio_pins.c.obj
                0x20000210                gpio_rotary_encoder_input_a
 .data.gpio_rotary_encoder_input_b
                0x2000022c       0x1c CMakeFiles/str_echo_freertos.dir/home/aselsan/Desktop/GPT_BACKUP/freertos-colibri-imx7/examples/imx7_colibri_m4/gpio_pins.c.obj
                0x2000022c                gpio_rotary_encoder_input_b
 .data.led3     0x20000248        0x2 CMakeFiles/str_echo_freertos.dir/home/aselsan/Desktop/GPT_BACKUP/freertos-colibri-imx7/examples/imx7_colibri_m4/demo_apps/rpmsg/str_echo_freertos/i2c.c.obj
                0x20000248                led3
 *fill*         0x2000024a        0x2 
 .data.led1     0x2000024c        0x2 CMakeFiles/str_echo_freertos.dir/home/aselsan/Desktop/GPT_BACKUP/freertos-colibri-imx7/examples/imx7_colibri_m4/demo_apps/rpmsg/str_echo_freertos/i2c.c.obj
                0x2000024c                led1
 *fill*         0x2000024e        0x2 
 .data.led2     0x20000250        0x2 CMakeFiles/str_echo_freertos.dir/home/aselsan/Desktop/GPT_BACKUP/freertos-colibri-imx7/examples/imx7_colibri_m4/demo_apps/rpmsg/str_echo_freertos/i2c.c.obj
                0x20000250                led2
 *fill*         0x20000252        0x2 
 .data.led4     0x20000254        0x2 CMakeFiles/str_echo_freertos.dir/home/aselsan/Desktop/GPT_BACKUP/freertos-colibri-imx7/examples/imx7_colibri_m4/demo_apps/rpmsg/str_echo_freertos/i2c.c.obj
                0x20000254                led4
 *fill*         0x20000256        0x2 
 .data.led5     0x20000258        0x2 CMakeFiles/str_echo_freertos.dir/home/aselsan/Desktop/GPT_BACKUP/freertos-colibri-imx7/examples/imx7_colibri_m4/demo_apps/rpmsg/str_echo_freertos/i2c.c.obj
                0x20000258                led5
 *fill*         0x2000025a        0x2 
 .data.led6     0x2000025c        0x2 CMakeFiles/str_echo_freertos.dir/home/aselsan/Desktop/GPT_BACKUP/freertos-colibri-imx7/examples/imx7_colibri_m4/demo_apps/rpmsg/str_echo_freertos/i2c.c.obj
                0x2000025c                led6
 .data.sent_skb_packet_packet_id
                0x2000025e        0x1 CMakeFiles/str_echo_freertos.dir/home/aselsan/Desktop/GPT_BACKUP/freertos-colibri-imx7/examples/imx7_colibri_m4/demo_apps/rpmsg/str_echo_freertos/comm_skb.c.obj
                0x2000025e                sent_skb_packet_packet_id
 *fill*         0x2000025f        0x1 
 .data.impure_data
                0x20000260       0x60 /home/aselsan/Desktop/IMX7/toolchain/gcc-arm-none-eabi-4_9-2015q3/bin/../lib/gcc/arm-none-eabi/4.9.3/../../../../arm-none-eabi/lib/armv7e-m/fpu/libc_nano.a(lib_a-impure.o)
 .data._impure_ptr
                0x200002c0        0x4 /home/aselsan/Desktop/IMX7/toolchain/gcc-arm-none-eabi-4_9-2015q3/bin/../lib/gcc/arm-none-eabi/4.9.3/../../../../arm-none-eabi/lib/armv7e-m/fpu/libc_nano.a(lib_a-impure.o)
                0x200002c0                _impure_ptr
 *(.jcr*)
 .jcr           0x200002c4        0x0 /home/aselsan/Desktop/IMX7/toolchain/gcc-arm-none-eabi-4_9-2015q3/bin/../lib/gcc/arm-none-eabi/4.9.3/armv7e-m/fpu/crtbegin.o
 .jcr           0x200002c4        0x4 /home/aselsan/Desktop/IMX7/toolchain/gcc-arm-none-eabi-4_9-2015q3/bin/../lib/gcc/arm-none-eabi/4.9.3/armv7e-m/fpu/crtend.o
                0x200002c8                . = ALIGN (0x4)

.igot.plt       0x200002c8        0x0
 .igot.plt      0x00000000        0x0 /home/aselsan/Desktop/IMX7/toolchain/gcc-arm-none-eabi-4_9-2015q3/bin/../lib/gcc/arm-none-eabi/4.9.3/armv7e-m/fpu/crtbegin.o

.bss            0x200002c8     0x5344
                0x200002c8                . = ALIGN (0x4)
                0x200002c8                __START_BSS = .
                0x200002c8                __bss_start__ = .
 *(.bss)
 .bss           0x200002c8       0x1c /home/aselsan/Desktop/IMX7/toolchain/gcc-arm-none-eabi-4_9-2015q3/bin/../lib/gcc/arm-none-eabi/4.9.3/armv7e-m/fpu/crtbegin.o
 *(.bss*)
 .bss.procs     0x200002e4        0x4 CMakeFiles/str_echo_freertos.dir/home/aselsan/Desktop/GPT_BACKUP/freertos-colibri-imx7/middleware/multicore/open-amp/common/hil/hil.c.obj
                0x200002e4                procs
 .bss.env_init_counter
                0x200002e8        0x4 CMakeFiles/str_echo_freertos.dir/home/aselsan/Desktop/GPT_BACKUP/freertos-colibri-imx7/middleware/multicore/open-amp/porting/env/freertos/rpmsg_porting.c.obj
 .bss.isr_table
                0x200002ec       0x50 CMakeFiles/str_echo_freertos.dir/home/aselsan/Desktop/GPT_BACKUP/freertos-colibri-imx7/middleware/multicore/open-amp/porting/env/freertos/rpmsg_porting.c.obj
 .bss.disable_counter_all
                0x2000033c        0x4 CMakeFiles/str_echo_freertos.dir/home/aselsan/Desktop/GPT_BACKUP/freertos-colibri-imx7/middleware/multicore/open-amp/porting/imx7d_m4/platform.c.obj
 .bss.disable_counters
                0x20000340        0x8 CMakeFiles/str_echo_freertos.dir/home/aselsan/Desktop/GPT_BACKUP/freertos-colibri-imx7/middleware/multicore/open-amp/porting/imx7d_m4/platform.c.obj
 .bss.default_chnl
                0x20000348        0x4 CMakeFiles/str_echo_freertos.dir/home/aselsan/Desktop/GPT_BACKUP/freertos-colibri-imx7/middleware/multicore/open-amp/rpmsg/rpmsg_rtos.c.obj
 .bss.default_q
                0x2000034c        0x4 CMakeFiles/str_echo_freertos.dir/home/aselsan/Desktop/GPT_BACKUP/freertos-colibri-imx7/middleware/multicore/open-amp/rpmsg/rpmsg_rtos.c.obj
 .bss.callback_sync
                0x20000350        0x4 CMakeFiles/str_echo_freertos.dir/home/aselsan/Desktop/GPT_BACKUP/freertos-colibri-imx7/middleware/multicore/open-amp/rpmsg/rpmsg_rtos.c.obj
 .bss.rpmsg_queue_size
                0x20000354        0x4 CMakeFiles/str_echo_freertos.dir/home/aselsan/Desktop/GPT_BACKUP/freertos-colibri-imx7/middleware/multicore/open-amp/rpmsg/rpmsg_rtos.c.obj
 .bss.s_debugConsole
                0x20000358       0x10 CMakeFiles/str_echo_freertos.dir/home/aselsan/Desktop/GPT_BACKUP/freertos-colibri-imx7/platform/utilities/src/debug_console_imx.c.obj
 .bss.ucMaxSysCallPriority
                0x20000368        0x1 CMakeFiles/str_echo_freertos.dir/home/aselsan/Desktop/GPT_BACKUP/freertos-colibri-imx7/rtos/FreeRTOS/Source/portable/GCC/ARM_CM4F/port.c.obj
 *fill*         0x20000369        0x3 
 .bss.ulMaxPRIGROUPValue
                0x2000036c        0x4 CMakeFiles/str_echo_freertos.dir/home/aselsan/Desktop/GPT_BACKUP/freertos-colibri-imx7/rtos/FreeRTOS/Source/portable/GCC/ARM_CM4F/port.c.obj
 .bss.xHeapHasBeenInitialised.4537
                0x20000370        0x4 CMakeFiles/str_echo_freertos.dir/home/aselsan/Desktop/GPT_BACKUP/freertos-colibri-imx7/rtos/FreeRTOS/Source/portable/MemMang/heap_2.c.obj
 .bss.xStart    0x20000374        0x8 CMakeFiles/str_echo_freertos.dir/home/aselsan/Desktop/GPT_BACKUP/freertos-colibri-imx7/rtos/FreeRTOS/Source/portable/MemMang/heap_2.c.obj
 .bss.ucHeap    0x2000037c     0x5000 CMakeFiles/str_echo_freertos.dir/home/aselsan/Desktop/GPT_BACKUP/freertos-colibri-imx7/rtos/FreeRTOS/Source/portable/MemMang/heap_2.c.obj
 .bss.xEnd      0x2000537c        0x8 CMakeFiles/str_echo_freertos.dir/home/aselsan/Desktop/GPT_BACKUP/freertos-colibri-imx7/rtos/FreeRTOS/Source/portable/MemMang/heap_2.c.obj
 .bss.xQueueRegistry
                0x20005384       0x40 CMakeFiles/str_echo_freertos.dir/home/aselsan/Desktop/GPT_BACKUP/freertos-colibri-imx7/rtos/FreeRTOS/Source/queue.c.obj
                0x20005384                xQueueRegistry
 .bss.pxDelayedTaskList
                0x200053c4        0x4 CMakeFiles/str_echo_freertos.dir/home/aselsan/Desktop/GPT_BACKUP/freertos-colibri-imx7/rtos/FreeRTOS/Source/tasks.c.obj
 .bss.xSchedulerRunning
                0x200053c8        0x4 CMakeFiles/str_echo_freertos.dir/home/aselsan/Desktop/GPT_BACKUP/freertos-colibri-imx7/rtos/FreeRTOS/Source/tasks.c.obj
 .bss.xNumOfOverflows
                0x200053cc        0x4 CMakeFiles/str_echo_freertos.dir/home/aselsan/Desktop/GPT_BACKUP/freertos-colibri-imx7/rtos/FreeRTOS/Source/tasks.c.obj
 .bss.pxOverflowDelayedTaskList
                0x200053d0        0x4 CMakeFiles/str_echo_freertos.dir/home/aselsan/Desktop/GPT_BACKUP/freertos-colibri-imx7/rtos/FreeRTOS/Source/tasks.c.obj
 .bss.uxPendedTicks
                0x200053d4        0x4 CMakeFiles/str_echo_freertos.dir/home/aselsan/Desktop/GPT_BACKUP/freertos-colibri-imx7/rtos/FreeRTOS/Source/tasks.c.obj
 .bss.pxReadyTasksLists
                0x200053d8       0x64 CMakeFiles/str_echo_freertos.dir/home/aselsan/Desktop/GPT_BACKUP/freertos-colibri-imx7/rtos/FreeRTOS/Source/tasks.c.obj
 .bss.uxSchedulerSuspended
                0x2000543c        0x4 CMakeFiles/str_echo_freertos.dir/home/aselsan/Desktop/GPT_BACKUP/freertos-colibri-imx7/rtos/FreeRTOS/Source/tasks.c.obj
 .bss.uxCurrentNumberOfTasks
                0x20005440        0x4 CMakeFiles/str_echo_freertos.dir/home/aselsan/Desktop/GPT_BACKUP/freertos-colibri-imx7/rtos/FreeRTOS/Source/tasks.c.obj
 .bss.pxCurrentTCB
                0x20005444        0x4 CMakeFiles/str_echo_freertos.dir/home/aselsan/Desktop/GPT_BACKUP/freertos-colibri-imx7/rtos/FreeRTOS/Source/tasks.c.obj
                0x20005444                pxCurrentTCB
 .bss.xPendingReadyList
                0x20005448       0x14 CMakeFiles/str_echo_freertos.dir/home/aselsan/Desktop/GPT_BACKUP/freertos-colibri-imx7/rtos/FreeRTOS/Source/tasks.c.obj
 .bss.xTickCount
                0x2000545c        0x4 CMakeFiles/str_echo_freertos.dir/home/aselsan/Desktop/GPT_BACKUP/freertos-colibri-imx7/rtos/FreeRTOS/Source/tasks.c.obj
 .bss.xNextTaskUnblockTime
                0x20005460        0x4 CMakeFiles/str_echo_freertos.dir/home/aselsan/Desktop/GPT_BACKUP/freertos-colibri-imx7/rtos/FreeRTOS/Source/tasks.c.obj
 .bss.uxTaskNumber
                0x20005464        0x4 CMakeFiles/str_echo_freertos.dir/home/aselsan/Desktop/GPT_BACKUP/freertos-colibri-imx7/rtos/FreeRTOS/Source/tasks.c.obj
 .bss.xDelayedTaskList1
                0x20005468       0x14 CMakeFiles/str_echo_freertos.dir/home/aselsan/Desktop/GPT_BACKUP/freertos-colibri-imx7/rtos/FreeRTOS/Source/tasks.c.obj
 .bss.xDelayedTaskList2
                0x2000547c       0x14 CMakeFiles/str_echo_freertos.dir/home/aselsan/Desktop/GPT_BACKUP/freertos-colibri-imx7/rtos/FreeRTOS/Source/tasks.c.obj
 .bss.xSuspendedTaskList
                0x20005490       0x14 CMakeFiles/str_echo_freertos.dir/home/aselsan/Desktop/GPT_BACKUP/freertos-colibri-imx7/rtos/FreeRTOS/Source/tasks.c.obj
 .bss.uxTopReadyPriority
                0x200054a4        0x4 CMakeFiles/str_echo_freertos.dir/home/aselsan/Desktop/GPT_BACKUP/freertos-colibri-imx7/rtos/FreeRTOS/Source/tasks.c.obj
 .bss.xYieldPending
                0x200054a8        0x4 CMakeFiles/str_echo_freertos.dir/home/aselsan/Desktop/GPT_BACKUP/freertos-colibri-imx7/rtos/FreeRTOS/Source/tasks.c.obj
 .bss.rotary_encoder_event_for_a7
                0x200054ac        0x1 CMakeFiles/str_echo_freertos.dir/home/aselsan/Desktop/GPT_BACKUP/freertos-colibri-imx7/examples/imx7_colibri_m4/demo_apps/rpmsg/str_echo_freertos/gpio.c.obj
                0x200054ac                rotary_encoder_event_for_a7
 .bss.rotary_encoder_event_for_skb
                0x200054ad        0x1 CMakeFiles/str_echo_freertos.dir/home/aselsan/Desktop/GPT_BACKUP/freertos-colibri-imx7/examples/imx7_colibri_m4/demo_apps/rpmsg/str_echo_freertos/gpio.c.obj
                0x200054ad                rotary_encoder_event_for_skb
 .bss.port2_leds
                0x200054ae        0x1 CMakeFiles/str_echo_freertos.dir/home/aselsan/Desktop/GPT_BACKUP/freertos-colibri-imx7/examples/imx7_colibri_m4/demo_apps/rpmsg/str_echo_freertos/i2c.c.obj
                0x200054ae                port2_leds
 .bss.port1_switches
                0x200054af        0x1 CMakeFiles/str_echo_freertos.dir/home/aselsan/Desktop/GPT_BACKUP/freertos-colibri-imx7/examples/imx7_colibri_m4/demo_apps/rpmsg/str_echo_freertos/i2c.c.obj
                0x200054af                port1_switches
 .bss.port1_leds
                0x200054b0        0x1 CMakeFiles/str_echo_freertos.dir/home/aselsan/Desktop/GPT_BACKUP/freertos-colibri-imx7/examples/imx7_colibri_m4/demo_apps/rpmsg/str_echo_freertos/i2c.c.obj
                0x200054b0                port1_leds
 .bss.rotary_switch_p2
                0x200054b1        0x1 CMakeFiles/str_echo_freertos.dir/home/aselsan/Desktop/GPT_BACKUP/freertos-colibri-imx7/examples/imx7_colibri_m4/demo_apps/rpmsg/str_echo_freertos/i2c.c.obj
                0x200054b1                rotary_switch_p2
 *fill*         0x200054b2        0x2 
 .bss.rxBuffer  0x200054b4        0x7 CMakeFiles/str_echo_freertos.dir/home/aselsan/Desktop/GPT_BACKUP/freertos-colibri-imx7/examples/imx7_colibri_m4/demo_apps/rpmsg/str_echo_freertos/i2c.c.obj
 .bss.rotary_switch_event_for_a7
                0x200054bb        0x1 CMakeFiles/str_echo_freertos.dir/home/aselsan/Desktop/GPT_BACKUP/freertos-colibri-imx7/examples/imx7_colibri_m4/demo_apps/rpmsg/str_echo_freertos/i2c.c.obj
                0x200054bb                rotary_switch_event_for_a7
 .bss.xSemaphore_i2c
                0x200054bc        0x4 CMakeFiles/str_echo_freertos.dir/home/aselsan/Desktop/GPT_BACKUP/freertos-colibri-imx7/examples/imx7_colibri_m4/demo_apps/rpmsg/str_echo_freertos/i2c.c.obj
 .bss.txBuffer  0x200054c0        0x5 CMakeFiles/str_echo_freertos.dir/home/aselsan/Desktop/GPT_BACKUP/freertos-colibri-imx7/examples/imx7_colibri_m4/demo_apps/rpmsg/str_echo_freertos/i2c.c.obj
 .bss.rotary_switch_event_for_skb
                0x200054c5        0x1 CMakeFiles/str_echo_freertos.dir/home/aselsan/Desktop/GPT_BACKUP/freertos-colibri-imx7/examples/imx7_colibri_m4/demo_apps/rpmsg/str_echo_freertos/i2c.c.obj
                0x200054c5                rotary_switch_event_for_skb
 .bss.rotary_switch_p0
                0x200054c6        0x1 CMakeFiles/str_echo_freertos.dir/home/aselsan/Desktop/GPT_BACKUP/freertos-colibri-imx7/examples/imx7_colibri_m4/demo_apps/rpmsg/str_echo_freertos/i2c.c.obj
                0x200054c6                rotary_switch_p0
 .bss.rotary_switch_p1
                0x200054c7        0x1 CMakeFiles/str_echo_freertos.dir/home/aselsan/Desktop/GPT_BACKUP/freertos-colibri-imx7/examples/imx7_colibri_m4/demo_apps/rpmsg/str_echo_freertos/i2c.c.obj
                0x200054c7                rotary_switch_p1
 .bss.cmdBuffer
                0x200054c8        0x5 CMakeFiles/str_echo_freertos.dir/home/aselsan/Desktop/GPT_BACKUP/freertos-colibri-imx7/examples/imx7_colibri_m4/demo_apps/rpmsg/str_echo_freertos/i2c.c.obj
 .bss.switch_event_for_skb
                0x200054cd        0x1 CMakeFiles/str_echo_freertos.dir/home/aselsan/Desktop/GPT_BACKUP/freertos-colibri-imx7/examples/imx7_colibri_m4/demo_apps/rpmsg/str_echo_freertos/i2c.c.obj
                0x200054cd                switch_event_for_skb
 .bss.switch_event_for_a7
                0x200054ce        0x1 CMakeFiles/str_echo_freertos.dir/home/aselsan/Desktop/GPT_BACKUP/freertos-colibri-imx7/examples/imx7_colibri_m4/demo_apps/rpmsg/str_echo_freertos/i2c.c.obj
                0x200054ce                switch_event_for_a7
 .bss.port0_switches
                0x200054cf        0x1 CMakeFiles/str_echo_freertos.dir/home/aselsan/Desktop/GPT_BACKUP/freertos-colibri-imx7/examples/imx7_colibri_m4/demo_apps/rpmsg/str_echo_freertos/i2c.c.obj
                0x200054cf                port0_switches
 .bss.waiting_skb_ack
                0x200054d0        0x1 CMakeFiles/str_echo_freertos.dir/home/aselsan/Desktop/GPT_BACKUP/freertos-colibri-imx7/examples/imx7_colibri_m4/demo_apps/rpmsg/str_echo_freertos/comm_skb.c.obj
                0x200054d0                waiting_skb_ack
 .bss.wrong_ack_received_from_skb
                0x200054d1        0x1 CMakeFiles/str_echo_freertos.dir/home/aselsan/Desktop/GPT_BACKUP/freertos-colibri-imx7/examples/imx7_colibri_m4/demo_apps/rpmsg/str_echo_freertos/comm_skb.c.obj
                0x200054d1                wrong_ack_received_from_skb
 *fill*         0x200054d2        0x2 
 .bss.data_queue_receied_from_a7
                0x200054d4        0x4 CMakeFiles/str_echo_freertos.dir/home/aselsan/Desktop/GPT_BACKUP/freertos-colibri-imx7/examples/imx7_colibri_m4/demo_apps/rpmsg/str_echo_freertos/comm_skb.c.obj
                0x200054d4                data_queue_receied_from_a7
 .bss.skb_ack_timeout
                0x200054d8        0x4 CMakeFiles/str_echo_freertos.dir/home/aselsan/Desktop/GPT_BACKUP/freertos-colibri-imx7/examples/imx7_colibri_m4/demo_apps/rpmsg/str_echo_freertos/comm_skb.c.obj
                0x200054d8                skb_ack_timeout
 .bss.skb_rec_buf
                0x200054dc      0x100 CMakeFiles/str_echo_freertos.dir/home/aselsan/Desktop/GPT_BACKUP/freertos-colibri-imx7/examples/imx7_colibri_m4/demo_apps/rpmsg/str_echo_freertos/comm_skb.c.obj
                0x200054dc                skb_rec_buf
 .bss.skb_rec_buf_data_count
                0x200055dc        0x1 CMakeFiles/str_echo_freertos.dir/home/aselsan/Desktop/GPT_BACKUP/freertos-colibri-imx7/examples/imx7_colibri_m4/demo_apps/rpmsg/str_echo_freertos/comm_skb.c.obj
                0x200055dc                skb_rec_buf_data_count
 *fill*         0x200055dd        0x3 
 .bss.ack_queue_received_from_skb
                0x200055e0        0x4 CMakeFiles/str_echo_freertos.dir/home/aselsan/Desktop/GPT_BACKUP/freertos-colibri-imx7/examples/imx7_colibri_m4/demo_apps/rpmsg/str_echo_freertos/comm_skb.c.obj
                0x200055e0                ack_queue_received_from_skb
 .bss.ack_queue_of_skb_received_data
                0x200055e4        0x4 CMakeFiles/str_echo_freertos.dir/home/aselsan/Desktop/GPT_BACKUP/freertos-colibri-imx7/examples/imx7_colibri_m4/demo_apps/rpmsg/str_echo_freertos/comm_skb.c.obj
                0x200055e4                ack_queue_of_skb_received_data
 .bss.skb_rec_buf_rptr
                0x200055e8        0x1 CMakeFiles/str_echo_freertos.dir/home/aselsan/Desktop/GPT_BACKUP/freertos-colibri-imx7/examples/imx7_colibri_m4/demo_apps/rpmsg/str_echo_freertos/comm_skb.c.obj
                0x200055e8                skb_rec_buf_rptr
 *fill*         0x200055e9        0x3 
 .bss.xSemaphore
                0x200055ec        0x4 CMakeFiles/str_echo_freertos.dir/home/aselsan/Desktop/GPT_BACKUP/freertos-colibri-imx7/examples/imx7_colibri_m4/demo_apps/rpmsg/str_echo_freertos/comm_skb.c.obj
 .bss.rdev      0x200055f0        0x4 CMakeFiles/str_echo_freertos.dir/home/aselsan/Desktop/GPT_BACKUP/freertos-colibri-imx7/examples/imx7_colibri_m4/demo_apps/rpmsg/str_echo_freertos/comm_skb.c.obj
                0x200055f0                rdev
 .bss.skb_rec_buf_wptr
                0x200055f4        0x1 CMakeFiles/str_echo_freertos.dir/home/aselsan/Desktop/GPT_BACKUP/freertos-colibri-imx7/examples/imx7_colibri_m4/demo_apps/rpmsg/str_echo_freertos/comm_skb.c.obj
                0x200055f4                skb_rec_buf_wptr
 *fill*         0x200055f5        0x3 
 .bss.app_chnl  0x200055f8        0x4 CMakeFiles/str_echo_freertos.dir/home/aselsan/Desktop/GPT_BACKUP/freertos-colibri-imx7/examples/imx7_colibri_m4/demo_apps/rpmsg/str_echo_freertos/comm_skb.c.obj
                0x200055f8                app_chnl
 .bss.__malloc_sbrk_start
                0x200055fc        0x4 /home/aselsan/Desktop/IMX7/toolchain/gcc-arm-none-eabi-4_9-2015q3/bin/../lib/gcc/arm-none-eabi/4.9.3/../../../../arm-none-eabi/lib/armv7e-m/fpu/libc_nano.a(lib_a-nano-mallocr.o)
                0x200055fc                __malloc_sbrk_start
 .bss.__malloc_free_list
                0x20005600        0x4 /home/aselsan/Desktop/IMX7/toolchain/gcc-arm-none-eabi-4_9-2015q3/bin/../lib/gcc/arm-none-eabi/4.9.3/../../../../arm-none-eabi/lib/armv7e-m/fpu/libc_nano.a(lib_a-nano-mallocr.o)
                0x20005600                __malloc_free_list
 .bss.heap_end.4079
                0x20005604        0x4 /home/aselsan/Desktop/IMX7/toolchain/gcc-arm-none-eabi-4_9-2015q3/bin/../lib/gcc/arm-none-eabi/4.9.3/../../../../arm-none-eabi/lib/armv7e-m/fpu/libnosys.a(sbrk.o)
 *(COMMON)
 COMMON         0x20005608        0x4 /home/aselsan/Desktop/IMX7/toolchain/gcc-arm-none-eabi-4_9-2015q3/bin/../lib/gcc/arm-none-eabi/4.9.3/../../../../arm-none-eabi/lib/armv7e-m/fpu/libc_nano.a(lib_a-reent.o)
                0x20005608                errno
                0x2000560c                . = ALIGN (0x4)
                0x2000560c                __bss_end__ = .
                0x2000560c                __END_BSS = .

.heap           0x2000560c      0x204
                0x20005610                . = ALIGN (0x8)
 *fill*         0x2000560c        0x4 
                0x20005610                __end__ = .
                0x20005610                PROVIDE (end, .)
                0x20005610                __HeapBase = .
                0x20005810                . = (. + HEAP_SIZE)
 *fill*         0x20005610      0x200 
                0x20005810                __HeapLimit = .

.stack          0x20005810      0x400
                0x20005810                . = ALIGN (0x8)
                0x20005c10                . = (. + STACK_SIZE)
 *fill*         0x20005810      0x400 
                0x20008000                __StackTop = (ORIGIN (m_data) + 0x8000)
                0x20007c00                __StackLimit = (__StackTop - STACK_SIZE)
                0x20008000                PROVIDE (__stack, __StackTop)

.ARM.attributes
                0x00000000       0x30
 *(.ARM.attributes)
 .ARM.attributes
                0x00000000       0x22 /home/aselsan/Desktop/IMX7/toolchain/gcc-arm-none-eabi-4_9-2015q3/bin/../lib/gcc/arm-none-eabi/4.9.3/armv7e-m/fpu/crti.o
 .ARM.attributes
                0x00000022       0x34 /home/aselsan/Desktop/IMX7/toolchain/gcc-arm-none-eabi-4_9-2015q3/bin/../lib/gcc/arm-none-eabi/4.9.3/armv7e-m/fpu/crtbegin.o
 .ARM.attributes
                0x00000056       0x20 /home/aselsan/Desktop/IMX7/toolchain/gcc-arm-none-eabi-4_9-2015q3/bin/../lib/gcc/arm-none-eabi/4.9.3/../../../../arm-none-eabi/lib/armv7e-m/fpu/crt0.o
 .ARM.attributes
                0x00000076       0x39 CMakeFiles/str_echo_freertos.dir/home/aselsan/Desktop/GPT_BACKUP/freertos-colibri-imx7/middleware/multicore/open-amp/common/hil/hil.c.obj
 .ARM.attributes
                0x000000af       0x39 CMakeFiles/str_echo_freertos.dir/home/aselsan/Desktop/GPT_BACKUP/freertos-colibri-imx7/middleware/multicore/open-amp/common/llist/llist.c.obj
 .ARM.attributes
                0x000000e8       0x39 CMakeFiles/str_echo_freertos.dir/home/aselsan/Desktop/GPT_BACKUP/freertos-colibri-imx7/middleware/multicore/open-amp/common/shm/sh_mem.c.obj
 .ARM.attributes
                0x00000121       0x39 CMakeFiles/str_echo_freertos.dir/home/aselsan/Desktop/GPT_BACKUP/freertos-colibri-imx7/middleware/multicore/open-amp/porting/env/freertos/rpmsg_porting.c.obj
 .ARM.attributes
                0x0000015a       0x39 CMakeFiles/str_echo_freertos.dir/home/aselsan/Desktop/GPT_BACKUP/freertos-colibri-imx7/middleware/multicore/open-amp/porting/imx7d_m4/platform.c.obj
 .ARM.attributes
                0x00000193       0x39 CMakeFiles/str_echo_freertos.dir/home/aselsan/Desktop/GPT_BACKUP/freertos-colibri-imx7/middleware/multicore/open-amp/porting/imx7d_m4/platform_info.c.obj
 .ARM.attributes
                0x000001cc       0x39 CMakeFiles/str_echo_freertos.dir/home/aselsan/Desktop/GPT_BACKUP/freertos-colibri-imx7/middleware/multicore/open-amp/rpmsg/remote_device.c.obj
 .ARM.attributes
                0x00000205       0x39 CMakeFiles/str_echo_freertos.dir/home/aselsan/Desktop/GPT_BACKUP/freertos-colibri-imx7/middleware/multicore/open-amp/rpmsg/rpmsg.c.obj
 .ARM.attributes
                0x0000023e       0x39 CMakeFiles/str_echo_freertos.dir/home/aselsan/Desktop/GPT_BACKUP/freertos-colibri-imx7/middleware/multicore/open-amp/rpmsg/rpmsg_core.c.obj
 .ARM.attributes
                0x00000277       0x39 CMakeFiles/str_echo_freertos.dir/home/aselsan/Desktop/GPT_BACKUP/freertos-colibri-imx7/middleware/multicore/open-amp/rpmsg/rpmsg_ext.c.obj
 .ARM.attributes
                0x000002b0       0x39 CMakeFiles/str_echo_freertos.dir/home/aselsan/Desktop/GPT_BACKUP/freertos-colibri-imx7/middleware/multicore/open-amp/rpmsg/rpmsg_rtos.c.obj
 .ARM.attributes
                0x000002e9       0x39 CMakeFiles/str_echo_freertos.dir/home/aselsan/Desktop/GPT_BACKUP/freertos-colibri-imx7/middleware/multicore/open-amp/virtio/virtqueue.c.obj
 .ARM.attributes
                0x00000322       0x1f CMakeFiles/str_echo_freertos.dir/home/aselsan/Desktop/GPT_BACKUP/freertos-colibri-imx7/platform/devices/MCIMX7D/startup/gcc/startup_MCIMX7D_M4.S.obj
 .ARM.attributes
                0x00000341       0x39 CMakeFiles/str_echo_freertos.dir/home/aselsan/Desktop/GPT_BACKUP/freertos-colibri-imx7/platform/devices/MCIMX7D/startup/system_MCIMX7D_M4.c.obj
 .ARM.attributes
                0x0000037a       0x39 CMakeFiles/str_echo_freertos.dir/home/aselsan/Desktop/GPT_BACKUP/freertos-colibri-imx7/platform/drivers/src/ccm_analog_imx7d.c.obj
 .ARM.attributes
                0x000003b3       0x39 CMakeFiles/str_echo_freertos.dir/home/aselsan/Desktop/GPT_BACKUP/freertos-colibri-imx7/platform/drivers/src/ccm_imx7d.c.obj
 .ARM.attributes
                0x000003ec       0x39 CMakeFiles/str_echo_freertos.dir/home/aselsan/Desktop/GPT_BACKUP/freertos-colibri-imx7/platform/drivers/src/mu_imx.c.obj
 .ARM.attributes
                0x00000425       0x39 CMakeFiles/str_echo_freertos.dir/home/aselsan/Desktop/GPT_BACKUP/freertos-colibri-imx7/platform/drivers/src/uart_imx.c.obj
 .ARM.attributes
                0x0000045e       0x39 CMakeFiles/str_echo_freertos.dir/home/aselsan/Desktop/GPT_BACKUP/freertos-colibri-imx7/platform/drivers/src/gpt.c.obj
 .ARM.attributes
                0x00000497       0x39 CMakeFiles/str_echo_freertos.dir/home/aselsan/Desktop/GPT_BACKUP/freertos-colibri-imx7/platform/drivers/src/gpio_imx.c.obj
 .ARM.attributes
                0x000004d0       0x39 CMakeFiles/str_echo_freertos.dir/home/aselsan/Desktop/GPT_BACKUP/freertos-colibri-imx7/platform/utilities/src/debug_console_imx.c.obj
 .ARM.attributes
                0x00000509       0x39 CMakeFiles/str_echo_freertos.dir/home/aselsan/Desktop/GPT_BACKUP/freertos-colibri-imx7/platform/drivers/src/i2c_imx.c.obj
 .ARM.attributes
                0x00000542       0x39 CMakeFiles/str_echo_freertos.dir/home/aselsan/Desktop/GPT_BACKUP/freertos-colibri-imx7/platform/utilities/src/print_scan.c.obj
 .ARM.attributes
                0x0000057b       0x39 CMakeFiles/str_echo_freertos.dir/home/aselsan/Desktop/GPT_BACKUP/freertos-colibri-imx7/rtos/FreeRTOS/Source/list.c.obj
 .ARM.attributes
                0x000005b4       0x39 CMakeFiles/str_echo_freertos.dir/home/aselsan/Desktop/GPT_BACKUP/freertos-colibri-imx7/rtos/FreeRTOS/Source/portable/GCC/ARM_CM4F/port.c.obj
 .ARM.attributes
                0x000005ed       0x39 CMakeFiles/str_echo_freertos.dir/home/aselsan/Desktop/GPT_BACKUP/freertos-colibri-imx7/rtos/FreeRTOS/Source/portable/MemMang/heap_2.c.obj
 .ARM.attributes
                0x00000626       0x39 CMakeFiles/str_echo_freertos.dir/home/aselsan/Desktop/GPT_BACKUP/freertos-colibri-imx7/rtos/FreeRTOS/Source/queue.c.obj
 .ARM.attributes
                0x0000065f       0x39 CMakeFiles/str_echo_freertos.dir/home/aselsan/Desktop/GPT_BACKUP/freertos-colibri-imx7/rtos/FreeRTOS/Source/tasks.c.obj
 .ARM.attributes
                0x00000698       0x39 CMakeFiles/str_echo_freertos.dir/home/aselsan/Desktop/GPT_BACKUP/freertos-colibri-imx7/examples/imx7_colibri_m4/board.c.obj
 .ARM.attributes
                0x000006d1       0x39 CMakeFiles/str_echo_freertos.dir/home/aselsan/Desktop/GPT_BACKUP/freertos-colibri-imx7/examples/imx7_colibri_m4/gpio_pins.c.obj
 .ARM.attributes
                0x0000070a       0x39 CMakeFiles/str_echo_freertos.dir/home/aselsan/Desktop/GPT_BACKUP/freertos-colibri-imx7/examples/imx7_colibri_m4/clock_freq.c.obj
 .ARM.attributes
                0x00000743       0x39 CMakeFiles/str_echo_freertos.dir/home/aselsan/Desktop/GPT_BACKUP/freertos-colibri-imx7/examples/imx7_colibri_m4/pin_mux.c.obj
 .ARM.attributes
                0x0000077c       0x39 CMakeFiles/str_echo_freertos.dir/home/aselsan/Desktop/GPT_BACKUP/freertos-colibri-imx7/examples/imx7_colibri_m4/demo_apps/rpmsg/str_echo_freertos/hardware_init.c.obj
 .ARM.attributes
                0x000007b5       0x39 CMakeFiles/str_echo_freertos.dir/home/aselsan/Desktop/GPT_BACKUP/freertos-colibri-imx7/examples/imx7_colibri_m4/demo_apps/rpmsg/str_echo_freertos/str_echo_freertos.c.obj
 .ARM.attributes
                0x000007ee       0x39 CMakeFiles/str_echo_freertos.dir/home/aselsan/Desktop/GPT_BACKUP/freertos-colibri-imx7/examples/imx7_colibri_m4/demo_apps/rpmsg/str_echo_freertos/timer.c.obj
 .ARM.attributes
                0x00000827       0x39 CMakeFiles/str_echo_freertos.dir/home/aselsan/Desktop/GPT_BACKUP/freertos-colibri-imx7/examples/imx7_colibri_m4/demo_apps/rpmsg/str_echo_freertos/gpio.c.obj
 .ARM.attributes
                0x00000860       0x39 CMakeFiles/str_echo_freertos.dir/home/aselsan/Desktop/GPT_BACKUP/freertos-colibri-imx7/examples/imx7_colibri_m4/demo_apps/rpmsg/str_echo_freertos/i2c.c.obj
 .ARM.attributes
                0x00000899       0x39 CMakeFiles/str_echo_freertos.dir/home/aselsan/Desktop/GPT_BACKUP/freertos-colibri-imx7/examples/imx7_colibri_m4/demo_apps/rpmsg/str_echo_freertos/comm_skb.c.obj
 .ARM.attributes
                0x000008d2       0x34 /home/aselsan/Desktop/IMX7/toolchain/gcc-arm-none-eabi-4_9-2015q3/bin/../lib/gcc/arm-none-eabi/4.9.3/../../../../arm-none-eabi/lib/armv7e-m/fpu/libc_nano.a(lib_a-assert.o)
 .ARM.attributes
                0x00000906       0x34 /home/aselsan/Desktop/IMX7/toolchain/gcc-arm-none-eabi-4_9-2015q3/bin/../lib/gcc/arm-none-eabi/4.9.3/../../../../arm-none-eabi/lib/armv7e-m/fpu/libc_nano.a(lib_a-exit.o)
 .ARM.attributes
                0x0000093a       0x34 /home/aselsan/Desktop/IMX7/toolchain/gcc-arm-none-eabi-4_9-2015q3/bin/../lib/gcc/arm-none-eabi/4.9.3/../../../../arm-none-eabi/lib/armv7e-m/fpu/libc_nano.a(lib_a-fprintf.o)
 .ARM.attributes
                0x0000096e       0x34 /home/aselsan/Desktop/IMX7/toolchain/gcc-arm-none-eabi-4_9-2015q3/bin/../lib/gcc/arm-none-eabi/4.9.3/../../../../arm-none-eabi/lib/armv7e-m/fpu/libc_nano.a(lib_a-impure.o)
 .ARM.attributes
                0x000009a2       0x34 /home/aselsan/Desktop/IMX7/toolchain/gcc-arm-none-eabi-4_9-2015q3/bin/../lib/gcc/arm-none-eabi/4.9.3/../../../../arm-none-eabi/lib/armv7e-m/fpu/libc_nano.a(lib_a-init.o)
 .ARM.attributes
                0x000009d6       0x34 /home/aselsan/Desktop/IMX7/toolchain/gcc-arm-none-eabi-4_9-2015q3/bin/../lib/gcc/arm-none-eabi/4.9.3/../../../../arm-none-eabi/lib/armv7e-m/fpu/libc_nano.a(lib_a-memcpy.o)
 .ARM.attributes
                0x00000a0a       0x34 /home/aselsan/Desktop/IMX7/toolchain/gcc-arm-none-eabi-4_9-2015q3/bin/../lib/gcc/arm-none-eabi/4.9.3/../../../../arm-none-eabi/lib/armv7e-m/fpu/libc_nano.a(lib_a-memset.o)
 .ARM.attributes
                0x00000a3e       0x34 /home/aselsan/Desktop/IMX7/toolchain/gcc-arm-none-eabi-4_9-2015q3/bin/../lib/gcc/arm-none-eabi/4.9.3/../../../../arm-none-eabi/lib/armv7e-m/fpu/libc_nano.a(lib_a-nano-vfprintf.o)
 .ARM.attributes
                0x00000a72       0x34 /home/aselsan/Desktop/IMX7/toolchain/gcc-arm-none-eabi-4_9-2015q3/bin/../lib/gcc/arm-none-eabi/4.9.3/../../../../arm-none-eabi/lib/armv7e-m/fpu/libc_nano.a(lib_a-nano-vfprintf_i.o)
 .ARM.attributes
                0x00000aa6       0x34 /home/aselsan/Desktop/IMX7/toolchain/gcc-arm-none-eabi-4_9-2015q3/bin/../lib/gcc/arm-none-eabi/4.9.3/../../../../arm-none-eabi/lib/armv7e-m/fpu/libc_nano.a(lib_a-strlen.o)
 .ARM.attributes
                0x00000ada       0x34 /home/aselsan/Desktop/IMX7/toolchain/gcc-arm-none-eabi-4_9-2015q3/bin/../lib/gcc/arm-none-eabi/4.9.3/../../../../arm-none-eabi/lib/armv7e-m/fpu/libc_nano.a(lib_a-strncmp.o)
 .ARM.attributes
                0x00000b0e       0x34 /home/aselsan/Desktop/IMX7/toolchain/gcc-arm-none-eabi-4_9-2015q3/bin/../lib/gcc/arm-none-eabi/4.9.3/../../../../arm-none-eabi/lib/armv7e-m/fpu/libc_nano.a(lib_a-strncpy.o)
 .ARM.attributes
                0x00000b42       0x34 /home/aselsan/Desktop/IMX7/toolchain/gcc-arm-none-eabi-4_9-2015q3/bin/../lib/gcc/arm-none-eabi/4.9.3/../../../../arm-none-eabi/lib/armv7e-m/fpu/libc_nano.a(lib_a-wbuf.o)
 .ARM.attributes
                0x00000b76       0x34 /home/aselsan/Desktop/IMX7/toolchain/gcc-arm-none-eabi-4_9-2015q3/bin/../lib/gcc/arm-none-eabi/4.9.3/../../../../arm-none-eabi/lib/armv7e-m/fpu/libc_nano.a(lib_a-wsetup.o)
 .ARM.attributes
                0x00000baa       0x34 /home/aselsan/Desktop/IMX7/toolchain/gcc-arm-none-eabi-4_9-2015q3/bin/../lib/gcc/arm-none-eabi/4.9.3/../../../../arm-none-eabi/lib/armv7e-m/fpu/libc_nano.a(lib_a-abort.o)
 .ARM.attributes
                0x00000bde       0x34 /home/aselsan/Desktop/IMX7/toolchain/gcc-arm-none-eabi-4_9-2015q3/bin/../lib/gcc/arm-none-eabi/4.9.3/../../../../arm-none-eabi/lib/armv7e-m/fpu/libc_nano.a(lib_a-fflush.o)
 .ARM.attributes
                0x00000c12       0x34 /home/aselsan/Desktop/IMX7/toolchain/gcc-arm-none-eabi-4_9-2015q3/bin/../lib/gcc/arm-none-eabi/4.9.3/../../../../arm-none-eabi/lib/armv7e-m/fpu/libc_nano.a(lib_a-findfp.o)
 .ARM.attributes
                0x00000c46       0x34 /home/aselsan/Desktop/IMX7/toolchain/gcc-arm-none-eabi-4_9-2015q3/bin/../lib/gcc/arm-none-eabi/4.9.3/../../../../arm-none-eabi/lib/armv7e-m/fpu/libc_nano.a(lib_a-fwalk.o)
 .ARM.attributes
                0x00000c7a       0x34 /home/aselsan/Desktop/IMX7/toolchain/gcc-arm-none-eabi-4_9-2015q3/bin/../lib/gcc/arm-none-eabi/4.9.3/../../../../arm-none-eabi/lib/armv7e-m/fpu/libc_nano.a(lib_a-makebuf.o)
 .ARM.attributes
                0x00000cae       0x34 /home/aselsan/Desktop/IMX7/toolchain/gcc-arm-none-eabi-4_9-2015q3/bin/../lib/gcc/arm-none-eabi/4.9.3/../../../../arm-none-eabi/lib/armv7e-m/fpu/libc_nano.a(lib_a-memchr.o)
 .ARM.attributes
                0x00000ce2       0x34 /home/aselsan/Desktop/IMX7/toolchain/gcc-arm-none-eabi-4_9-2015q3/bin/../lib/gcc/arm-none-eabi/4.9.3/../../../../arm-none-eabi/lib/armv7e-m/fpu/libc_nano.a(lib_a-nano-freer.o)
 .ARM.attributes
                0x00000d16       0x34 /home/aselsan/Desktop/IMX7/toolchain/gcc-arm-none-eabi-4_9-2015q3/bin/../lib/gcc/arm-none-eabi/4.9.3/../../../../arm-none-eabi/lib/armv7e-m/fpu/libc_nano.a(lib_a-nano-mallocr.o)
 .ARM.attributes
                0x00000d4a       0x34 /home/aselsan/Desktop/IMX7/toolchain/gcc-arm-none-eabi-4_9-2015q3/bin/../lib/gcc/arm-none-eabi/4.9.3/../../../../arm-none-eabi/lib/armv7e-m/fpu/libc_nano.a(lib_a-sbrkr.o)
 .ARM.attributes
                0x00000d7e       0x34 /home/aselsan/Desktop/IMX7/toolchain/gcc-arm-none-eabi-4_9-2015q3/bin/../lib/gcc/arm-none-eabi/4.9.3/../../../../arm-none-eabi/lib/armv7e-m/fpu/libc_nano.a(lib_a-signal.o)
 .ARM.attributes
                0x00000db2       0x34 /home/aselsan/Desktop/IMX7/toolchain/gcc-arm-none-eabi-4_9-2015q3/bin/../lib/gcc/arm-none-eabi/4.9.3/../../../../arm-none-eabi/lib/armv7e-m/fpu/libc_nano.a(lib_a-signalr.o)
 .ARM.attributes
                0x00000de6       0x34 /home/aselsan/Desktop/IMX7/toolchain/gcc-arm-none-eabi-4_9-2015q3/bin/../lib/gcc/arm-none-eabi/4.9.3/../../../../arm-none-eabi/lib/armv7e-m/fpu/libc_nano.a(lib_a-stdio.o)
 .ARM.attributes
                0x00000e1a       0x34 /home/aselsan/Desktop/IMX7/toolchain/gcc-arm-none-eabi-4_9-2015q3/bin/../lib/gcc/arm-none-eabi/4.9.3/../../../../arm-none-eabi/lib/armv7e-m/fpu/libc_nano.a(lib_a-writer.o)
 .ARM.attributes
                0x00000e4e       0x34 /home/aselsan/Desktop/IMX7/toolchain/gcc-arm-none-eabi-4_9-2015q3/bin/../lib/gcc/arm-none-eabi/4.9.3/../../../../arm-none-eabi/lib/armv7e-m/fpu/libc_nano.a(lib_a-closer.o)
 .ARM.attributes
                0x00000e82       0x34 /home/aselsan/Desktop/IMX7/toolchain/gcc-arm-none-eabi-4_9-2015q3/bin/../lib/gcc/arm-none-eabi/4.9.3/../../../../arm-none-eabi/lib/armv7e-m/fpu/libc_nano.a(lib_a-fstatr.o)
 .ARM.attributes
                0x00000eb6       0x34 /home/aselsan/Desktop/IMX7/toolchain/gcc-arm-none-eabi-4_9-2015q3/bin/../lib/gcc/arm-none-eabi/4.9.3/../../../../arm-none-eabi/lib/armv7e-m/fpu/libc_nano.a(lib_a-isattyr.o)
 .ARM.attributes
                0x00000eea       0x34 /home/aselsan/Desktop/IMX7/toolchain/gcc-arm-none-eabi-4_9-2015q3/bin/../lib/gcc/arm-none-eabi/4.9.3/../../../../arm-none-eabi/lib/armv7e-m/fpu/libc_nano.a(lib_a-lseekr.o)
 .ARM.attributes
                0x00000f1e       0x34 /home/aselsan/Desktop/IMX7/toolchain/gcc-arm-none-eabi-4_9-2015q3/bin/../lib/gcc/arm-none-eabi/4.9.3/../../../../arm-none-eabi/lib/armv7e-m/fpu/libc_nano.a(lib_a-readr.o)
 .ARM.attributes
                0x00000f52       0x34 /home/aselsan/Desktop/IMX7/toolchain/gcc-arm-none-eabi-4_9-2015q3/bin/../lib/gcc/arm-none-eabi/4.9.3/../../../../arm-none-eabi/lib/armv7e-m/fpu/libc_nano.a(lib_a-reent.o)
 .ARM.attributes
                0x00000f86       0x34 /home/aselsan/Desktop/IMX7/toolchain/gcc-arm-none-eabi-4_9-2015q3/bin/../lib/gcc/arm-none-eabi/4.9.3/../../../../arm-none-eabi/lib/armv7e-m/fpu/libnosys.a(close.o)
 .ARM.attributes
                0x00000fba       0x34 /home/aselsan/Desktop/IMX7/toolchain/gcc-arm-none-eabi-4_9-2015q3/bin/../lib/gcc/arm-none-eabi/4.9.3/../../../../arm-none-eabi/lib/armv7e-m/fpu/libnosys.a(fstat.o)
 .ARM.attributes
                0x00000fee       0x34 /home/aselsan/Desktop/IMX7/toolchain/gcc-arm-none-eabi-4_9-2015q3/bin/../lib/gcc/arm-none-eabi/4.9.3/../../../../arm-none-eabi/lib/armv7e-m/fpu/libnosys.a(getpid.o)
 .ARM.attributes
                0x00001022       0x34 /home/aselsan/Desktop/IMX7/toolchain/gcc-arm-none-eabi-4_9-2015q3/bin/../lib/gcc/arm-none-eabi/4.9.3/../../../../arm-none-eabi/lib/armv7e-m/fpu/libnosys.a(isatty.o)
 .ARM.attributes
                0x00001056       0x34 /home/aselsan/Desktop/IMX7/toolchain/gcc-arm-none-eabi-4_9-2015q3/bin/../lib/gcc/arm-none-eabi/4.9.3/../../../../arm-none-eabi/lib/armv7e-m/fpu/libnosys.a(kill.o)
 .ARM.attributes
                0x0000108a       0x34 /home/aselsan/Desktop/IMX7/toolchain/gcc-arm-none-eabi-4_9-2015q3/bin/../lib/gcc/arm-none-eabi/4.9.3/../../../../arm-none-eabi/lib/armv7e-m/fpu/libnosys.a(lseek.o)
 .ARM.attributes
                0x000010be       0x34 /home/aselsan/Desktop/IMX7/toolchain/gcc-arm-none-eabi-4_9-2015q3/bin/../lib/gcc/arm-none-eabi/4.9.3/../../../../arm-none-eabi/lib/armv7e-m/fpu/libnosys.a(sbrk.o)
 .ARM.attributes
                0x000010f2       0x34 /home/aselsan/Desktop/IMX7/toolchain/gcc-arm-none-eabi-4_9-2015q3/bin/../lib/gcc/arm-none-eabi/4.9.3/../../../../arm-none-eabi/lib/armv7e-m/fpu/libnosys.a(_exit.o)
 .ARM.attributes
                0x00001126       0x34 /home/aselsan/Desktop/IMX7/toolchain/gcc-arm-none-eabi-4_9-2015q3/bin/../lib/gcc/arm-none-eabi/4.9.3/armv7e-m/fpu/crtend.o
 .ARM.attributes
                0x0000115a       0x22 /home/aselsan/Desktop/IMX7/toolchain/gcc-arm-none-eabi-4_9-2015q3/bin/../lib/gcc/arm-none-eabi/4.9.3/armv7e-m/fpu/crtn.o
                0x00000001                ASSERT ((__StackLimit >= __HeapLimit), region m_data overflowed with stack and heap)
OUTPUT(str_echo_freertos.elf elf32-littlearm)

.debug_info     0x00000000    0x22ef4
 .debug_info    0x00000000      0xe27 CMakeFiles/str_echo_freertos.dir/home/aselsan/Desktop/GPT_BACKUP/freertos-colibri-imx7/middleware/multicore/open-amp/common/hil/hil.c.obj
 .debug_info    0x00000e27       0xd0 CMakeFiles/str_echo_freertos.dir/home/aselsan/Desktop/GPT_BACKUP/freertos-colibri-imx7/middleware/multicore/open-amp/common/llist/llist.c.obj
 .debug_info    0x00000ef7      0x41e CMakeFiles/str_echo_freertos.dir/home/aselsan/Desktop/GPT_BACKUP/freertos-colibri-imx7/middleware/multicore/open-amp/common/shm/sh_mem.c.obj
 .debug_info    0x00001315     0x11c7 CMakeFiles/str_echo_freertos.dir/home/aselsan/Desktop/GPT_BACKUP/freertos-colibri-imx7/middleware/multicore/open-amp/porting/env/freertos/rpmsg_porting.c.obj
 .debug_info    0x000024dc     0x15f9 CMakeFiles/str_echo_freertos.dir/home/aselsan/Desktop/GPT_BACKUP/freertos-colibri-imx7/middleware/multicore/open-amp/porting/imx7d_m4/platform.c.obj
 .debug_info    0x00003ad5      0x899 CMakeFiles/str_echo_freertos.dir/home/aselsan/Desktop/GPT_BACKUP/freertos-colibri-imx7/middleware/multicore/open-amp/porting/imx7d_m4/platform_info.c.obj
 .debug_info    0x0000436e     0x167a CMakeFiles/str_echo_freertos.dir/home/aselsan/Desktop/GPT_BACKUP/freertos-colibri-imx7/middleware/multicore/open-amp/rpmsg/remote_device.c.obj
 .debug_info    0x000059e8     0x1281 CMakeFiles/str_echo_freertos.dir/home/aselsan/Desktop/GPT_BACKUP/freertos-colibri-imx7/middleware/multicore/open-amp/rpmsg/rpmsg.c.obj
 .debug_info    0x00006c69     0x1c5e CMakeFiles/str_echo_freertos.dir/home/aselsan/Desktop/GPT_BACKUP/freertos-colibri-imx7/middleware/multicore/open-amp/rpmsg/rpmsg_core.c.obj
 .debug_info    0x000088c7      0xe64 CMakeFiles/str_echo_freertos.dir/home/aselsan/Desktop/GPT_BACKUP/freertos-colibri-imx7/middleware/multicore/open-amp/rpmsg/rpmsg_ext.c.obj
 .debug_info    0x0000972b     0x1519 CMakeFiles/str_echo_freertos.dir/home/aselsan/Desktop/GPT_BACKUP/freertos-colibri-imx7/middleware/multicore/open-amp/rpmsg/rpmsg_rtos.c.obj
 .debug_info    0x0000ac44      0xf24 CMakeFiles/str_echo_freertos.dir/home/aselsan/Desktop/GPT_BACKUP/freertos-colibri-imx7/middleware/multicore/open-amp/virtio/virtqueue.c.obj
 .debug_info    0x0000bb68      0x118 CMakeFiles/str_echo_freertos.dir/home/aselsan/Desktop/GPT_BACKUP/freertos-colibri-imx7/platform/devices/MCIMX7D/startup/gcc/startup_MCIMX7D_M4.S.obj
 .debug_info    0x0000bc80      0xa1b CMakeFiles/str_echo_freertos.dir/home/aselsan/Desktop/GPT_BACKUP/freertos-colibri-imx7/platform/devices/MCIMX7D/startup/system_MCIMX7D_M4.c.obj
 .debug_info    0x0000c69b      0x7f7 CMakeFiles/str_echo_freertos.dir/home/aselsan/Desktop/GPT_BACKUP/freertos-colibri-imx7/platform/drivers/src/ccm_analog_imx7d.c.obj
 .debug_info    0x0000ce92      0x612 CMakeFiles/str_echo_freertos.dir/home/aselsan/Desktop/GPT_BACKUP/freertos-colibri-imx7/platform/drivers/src/ccm_imx7d.c.obj
 .debug_info    0x0000d4a4      0x5bc CMakeFiles/str_echo_freertos.dir/home/aselsan/Desktop/GPT_BACKUP/freertos-colibri-imx7/platform/drivers/src/mu_imx.c.obj
 .debug_info    0x0000da60      0xae6 CMakeFiles/str_echo_freertos.dir/home/aselsan/Desktop/GPT_BACKUP/freertos-colibri-imx7/platform/drivers/src/uart_imx.c.obj
 .debug_info    0x0000e546      0x37b CMakeFiles/str_echo_freertos.dir/home/aselsan/Desktop/GPT_BACKUP/freertos-colibri-imx7/platform/drivers/src/gpt.c.obj
 .debug_info    0x0000e8c1      0x42f CMakeFiles/str_echo_freertos.dir/home/aselsan/Desktop/GPT_BACKUP/freertos-colibri-imx7/platform/drivers/src/gpio_imx.c.obj
 .debug_info    0x0000ecf0      0xae8 CMakeFiles/str_echo_freertos.dir/home/aselsan/Desktop/GPT_BACKUP/freertos-colibri-imx7/platform/utilities/src/debug_console_imx.c.obj
 .debug_info    0x0000f7d8      0x485 CMakeFiles/str_echo_freertos.dir/home/aselsan/Desktop/GPT_BACKUP/freertos-colibri-imx7/platform/drivers/src/i2c_imx.c.obj
 .debug_info    0x0000fc5d      0xa85 CMakeFiles/str_echo_freertos.dir/home/aselsan/Desktop/GPT_BACKUP/freertos-colibri-imx7/platform/utilities/src/print_scan.c.obj
 .debug_info    0x000106e2      0x28b CMakeFiles/str_echo_freertos.dir/home/aselsan/Desktop/GPT_BACKUP/freertos-colibri-imx7/rtos/FreeRTOS/Source/list.c.obj
 .debug_info    0x0001096d      0x528 CMakeFiles/str_echo_freertos.dir/home/aselsan/Desktop/GPT_BACKUP/freertos-colibri-imx7/rtos/FreeRTOS/Source/portable/GCC/ARM_CM4F/port.c.obj
 .debug_info    0x00010e95      0x305 CMakeFiles/str_echo_freertos.dir/home/aselsan/Desktop/GPT_BACKUP/freertos-colibri-imx7/rtos/FreeRTOS/Source/portable/MemMang/heap_2.c.obj
 .debug_info    0x0001119a     0x154c CMakeFiles/str_echo_freertos.dir/home/aselsan/Desktop/GPT_BACKUP/freertos-colibri-imx7/rtos/FreeRTOS/Source/queue.c.obj
 .debug_info    0x000126e6     0x1be9 CMakeFiles/str_echo_freertos.dir/home/aselsan/Desktop/GPT_BACKUP/freertos-colibri-imx7/rtos/FreeRTOS/Source/tasks.c.obj
 .debug_info    0x000142cf     0x17af CMakeFiles/str_echo_freertos.dir/home/aselsan/Desktop/GPT_BACKUP/freertos-colibri-imx7/examples/imx7_colibri_m4/board.c.obj
 .debug_info    0x00015a7e      0x578 CMakeFiles/str_echo_freertos.dir/home/aselsan/Desktop/GPT_BACKUP/freertos-colibri-imx7/examples/imx7_colibri_m4/gpio_pins.c.obj
 .debug_info    0x00015ff6     0x1529 CMakeFiles/str_echo_freertos.dir/home/aselsan/Desktop/GPT_BACKUP/freertos-colibri-imx7/examples/imx7_colibri_m4/clock_freq.c.obj
 .debug_info    0x0001751f     0x1fe7 CMakeFiles/str_echo_freertos.dir/home/aselsan/Desktop/GPT_BACKUP/freertos-colibri-imx7/examples/imx7_colibri_m4/pin_mux.c.obj
 .debug_info    0x00019506     0x2edc CMakeFiles/str_echo_freertos.dir/home/aselsan/Desktop/GPT_BACKUP/freertos-colibri-imx7/examples/imx7_colibri_m4/demo_apps/rpmsg/str_echo_freertos/hardware_init.c.obj
 .debug_info    0x0001c3e2      0xb0e CMakeFiles/str_echo_freertos.dir/home/aselsan/Desktop/GPT_BACKUP/freertos-colibri-imx7/examples/imx7_colibri_m4/demo_apps/rpmsg/str_echo_freertos/str_echo_freertos.c.obj
 .debug_info    0x0001cef0     0x18a1 CMakeFiles/str_echo_freertos.dir/home/aselsan/Desktop/GPT_BACKUP/freertos-colibri-imx7/examples/imx7_colibri_m4/demo_apps/rpmsg/str_echo_freertos/timer.c.obj
 .debug_info    0x0001e791      0xb33 CMakeFiles/str_echo_freertos.dir/home/aselsan/Desktop/GPT_BACKUP/freertos-colibri-imx7/examples/imx7_colibri_m4/demo_apps/rpmsg/str_echo_freertos/gpio.c.obj
 .debug_info    0x0001f2c4     0x156c CMakeFiles/str_echo_freertos.dir/home/aselsan/Desktop/GPT_BACKUP/freertos-colibri-imx7/examples/imx7_colibri_m4/demo_apps/rpmsg/str_echo_freertos/i2c.c.obj
 .debug_info    0x00020830     0x26c4 CMakeFiles/str_echo_freertos.dir/home/aselsan/Desktop/GPT_BACKUP/freertos-colibri-imx7/examples/imx7_colibri_m4/demo_apps/rpmsg/str_echo_freertos/comm_skb.c.obj

.debug_abbrev   0x00000000     0x5138
 .debug_abbrev  0x00000000      0x25e CMakeFiles/str_echo_freertos.dir/home/aselsan/Desktop/GPT_BACKUP/freertos-colibri-imx7/middleware/multicore/open-amp/common/hil/hil.c.obj
 .debug_abbrev  0x0000025e       0x8c CMakeFiles/str_echo_freertos.dir/home/aselsan/Desktop/GPT_BACKUP/freertos-colibri-imx7/middleware/multicore/open-amp/common/llist/llist.c.obj
 .debug_abbrev  0x000002ea      0x15a CMakeFiles/str_echo_freertos.dir/home/aselsan/Desktop/GPT_BACKUP/freertos-colibri-imx7/middleware/multicore/open-amp/common/shm/sh_mem.c.obj
 .debug_abbrev  0x00000444      0x270 CMakeFiles/str_echo_freertos.dir/home/aselsan/Desktop/GPT_BACKUP/freertos-colibri-imx7/middleware/multicore/open-amp/porting/env/freertos/rpmsg_porting.c.obj
 .debug_abbrev  0x000006b4      0x3b2 CMakeFiles/str_echo_freertos.dir/home/aselsan/Desktop/GPT_BACKUP/freertos-colibri-imx7/middleware/multicore/open-amp/porting/imx7d_m4/platform.c.obj
 .debug_abbrev  0x00000a66      0x158 CMakeFiles/str_echo_freertos.dir/home/aselsan/Desktop/GPT_BACKUP/freertos-colibri-imx7/middleware/multicore/open-amp/porting/imx7d_m4/platform_info.c.obj
 .debug_abbrev  0x00000bbe      0x349 CMakeFiles/str_echo_freertos.dir/home/aselsan/Desktop/GPT_BACKUP/freertos-colibri-imx7/middleware/multicore/open-amp/rpmsg/remote_device.c.obj
 .debug_abbrev  0x00000f07      0x28c CMakeFiles/str_echo_freertos.dir/home/aselsan/Desktop/GPT_BACKUP/freertos-colibri-imx7/middleware/multicore/open-amp/rpmsg/rpmsg.c.obj
 .debug_abbrev  0x00001193      0x34a CMakeFiles/str_echo_freertos.dir/home/aselsan/Desktop/GPT_BACKUP/freertos-colibri-imx7/middleware/multicore/open-amp/rpmsg/rpmsg_core.c.obj
 .debug_abbrev  0x000014dd      0x1e7 CMakeFiles/str_echo_freertos.dir/home/aselsan/Desktop/GPT_BACKUP/freertos-colibri-imx7/middleware/multicore/open-amp/rpmsg/rpmsg_ext.c.obj
 .debug_abbrev  0x000016c4      0x294 CMakeFiles/str_echo_freertos.dir/home/aselsan/Desktop/GPT_BACKUP/freertos-colibri-imx7/middleware/multicore/open-amp/rpmsg/rpmsg_rtos.c.obj
 .debug_abbrev  0x00001958      0x338 CMakeFiles/str_echo_freertos.dir/home/aselsan/Desktop/GPT_BACKUP/freertos-colibri-imx7/middleware/multicore/open-amp/virtio/virtqueue.c.obj
 .debug_abbrev  0x00001c90       0x14 CMakeFiles/str_echo_freertos.dir/home/aselsan/Desktop/GPT_BACKUP/freertos-colibri-imx7/platform/devices/MCIMX7D/startup/gcc/startup_MCIMX7D_M4.S.obj
 .debug_abbrev  0x00001ca4      0x140 CMakeFiles/str_echo_freertos.dir/home/aselsan/Desktop/GPT_BACKUP/freertos-colibri-imx7/platform/devices/MCIMX7D/startup/system_MCIMX7D_M4.c.obj
 .debug_abbrev  0x00001de4      0x1d2 CMakeFiles/str_echo_freertos.dir/home/aselsan/Desktop/GPT_BACKUP/freertos-colibri-imx7/platform/drivers/src/ccm_analog_imx7d.c.obj
 .debug_abbrev  0x00001fb6      0x167 CMakeFiles/str_echo_freertos.dir/home/aselsan/Desktop/GPT_BACKUP/freertos-colibri-imx7/platform/drivers/src/ccm_imx7d.c.obj
 .debug_abbrev  0x0000211d      0x1d2 CMakeFiles/str_echo_freertos.dir/home/aselsan/Desktop/GPT_BACKUP/freertos-colibri-imx7/platform/drivers/src/mu_imx.c.obj
 .debug_abbrev  0x000022ef      0x1f9 CMakeFiles/str_echo_freertos.dir/home/aselsan/Desktop/GPT_BACKUP/freertos-colibri-imx7/platform/drivers/src/uart_imx.c.obj
 .debug_abbrev  0x000024e8      0x18b CMakeFiles/str_echo_freertos.dir/home/aselsan/Desktop/GPT_BACKUP/freertos-colibri-imx7/platform/drivers/src/gpt.c.obj
 .debug_abbrev  0x00002673      0x171 CMakeFiles/str_echo_freertos.dir/home/aselsan/Desktop/GPT_BACKUP/freertos-colibri-imx7/platform/drivers/src/gpio_imx.c.obj
 .debug_abbrev  0x000027e4      0x338 CMakeFiles/str_echo_freertos.dir/home/aselsan/Desktop/GPT_BACKUP/freertos-colibri-imx7/platform/utilities/src/debug_console_imx.c.obj
 .debug_abbrev  0x00002b1c      0x1bd CMakeFiles/str_echo_freertos.dir/home/aselsan/Desktop/GPT_BACKUP/freertos-colibri-imx7/platform/drivers/src/i2c_imx.c.obj
 .debug_abbrev  0x00002cd9      0x22e CMakeFiles/str_echo_freertos.dir/home/aselsan/Desktop/GPT_BACKUP/freertos-colibri-imx7/platform/utilities/src/print_scan.c.obj
 .debug_abbrev  0x00002f07       0xda CMakeFiles/str_echo_freertos.dir/home/aselsan/Desktop/GPT_BACKUP/freertos-colibri-imx7/rtos/FreeRTOS/Source/list.c.obj
 .debug_abbrev  0x00002fe1      0x20d CMakeFiles/str_echo_freertos.dir/home/aselsan/Desktop/GPT_BACKUP/freertos-colibri-imx7/rtos/FreeRTOS/Source/portable/GCC/ARM_CM4F/port.c.obj
 .debug_abbrev  0x000031ee      0x1ae CMakeFiles/str_echo_freertos.dir/home/aselsan/Desktop/GPT_BACKUP/freertos-colibri-imx7/rtos/FreeRTOS/Source/portable/MemMang/heap_2.c.obj
 .debug_abbrev  0x0000339c      0x2ca CMakeFiles/str_echo_freertos.dir/home/aselsan/Desktop/GPT_BACKUP/freertos-colibri-imx7/rtos/FreeRTOS/Source/queue.c.obj
 .debug_abbrev  0x00003666      0x2ff CMakeFiles/str_echo_freertos.dir/home/aselsan/Desktop/GPT_BACKUP/freertos-colibri-imx7/rtos/FreeRTOS/Source/tasks.c.obj
 .debug_abbrev  0x00003965      0x253 CMakeFiles/str_echo_freertos.dir/home/aselsan/Desktop/GPT_BACKUP/freertos-colibri-imx7/examples/imx7_colibri_m4/board.c.obj
 .debug_abbrev  0x00003bb8      0x16f CMakeFiles/str_echo_freertos.dir/home/aselsan/Desktop/GPT_BACKUP/freertos-colibri-imx7/examples/imx7_colibri_m4/gpio_pins.c.obj
 .debug_abbrev  0x00003d27      0x1f8 CMakeFiles/str_echo_freertos.dir/home/aselsan/Desktop/GPT_BACKUP/freertos-colibri-imx7/examples/imx7_colibri_m4/clock_freq.c.obj
 .debug_abbrev  0x00003f1f      0x149 CMakeFiles/str_echo_freertos.dir/home/aselsan/Desktop/GPT_BACKUP/freertos-colibri-imx7/examples/imx7_colibri_m4/pin_mux.c.obj
 .debug_abbrev  0x00004068      0x261 CMakeFiles/str_echo_freertos.dir/home/aselsan/Desktop/GPT_BACKUP/freertos-colibri-imx7/examples/imx7_colibri_m4/demo_apps/rpmsg/str_echo_freertos/hardware_init.c.obj
 .debug_abbrev  0x000042c9      0x245 CMakeFiles/str_echo_freertos.dir/home/aselsan/Desktop/GPT_BACKUP/freertos-colibri-imx7/examples/imx7_colibri_m4/demo_apps/rpmsg/str_echo_freertos/str_echo_freertos.c.obj
 .debug_abbrev  0x0000450e      0x280 CMakeFiles/str_echo_freertos.dir/home/aselsan/Desktop/GPT_BACKUP/freertos-colibri-imx7/examples/imx7_colibri_m4/demo_apps/rpmsg/str_echo_freertos/timer.c.obj
 .debug_abbrev  0x0000478e      0x28e CMakeFiles/str_echo_freertos.dir/home/aselsan/Desktop/GPT_BACKUP/freertos-colibri-imx7/examples/imx7_colibri_m4/demo_apps/rpmsg/str_echo_freertos/gpio.c.obj
 .debug_abbrev  0x00004a1c      0x373 CMakeFiles/str_echo_freertos.dir/home/aselsan/Desktop/GPT_BACKUP/freertos-colibri-imx7/examples/imx7_colibri_m4/demo_apps/rpmsg/str_echo_freertos/i2c.c.obj
 .debug_abbrev  0x00004d8f      0x3a9 CMakeFiles/str_echo_freertos.dir/home/aselsan/Desktop/GPT_BACKUP/freertos-colibri-imx7/examples/imx7_colibri_m4/demo_apps/rpmsg/str_echo_freertos/comm_skb.c.obj

.debug_loc      0x00000000     0xb8a5
 .debug_loc     0x00000000      0x497 CMakeFiles/str_echo_freertos.dir/home/aselsan/Desktop/GPT_BACKUP/freertos-colibri-imx7/middleware/multicore/open-amp/common/hil/hil.c.obj
 .debug_loc     0x00000497      0x3c2 CMakeFiles/str_echo_freertos.dir/home/aselsan/Desktop/GPT_BACKUP/freertos-colibri-imx7/middleware/multicore/open-amp/common/shm/sh_mem.c.obj
 .debug_loc     0x00000859      0x935 CMakeFiles/str_echo_freertos.dir/home/aselsan/Desktop/GPT_BACKUP/freertos-colibri-imx7/middleware/multicore/open-amp/porting/env/freertos/rpmsg_porting.c.obj
 .debug_loc     0x0000118e      0x32e CMakeFiles/str_echo_freertos.dir/home/aselsan/Desktop/GPT_BACKUP/freertos-colibri-imx7/middleware/multicore/open-amp/porting/imx7d_m4/platform.c.obj
 .debug_loc     0x000014bc       0xb1 CMakeFiles/str_echo_freertos.dir/home/aselsan/Desktop/GPT_BACKUP/freertos-colibri-imx7/middleware/multicore/open-amp/porting/imx7d_m4/platform_info.c.obj
 .debug_loc     0x0000156d      0x7b2 CMakeFiles/str_echo_freertos.dir/home/aselsan/Desktop/GPT_BACKUP/freertos-colibri-imx7/middleware/multicore/open-amp/rpmsg/remote_device.c.obj
 .debug_loc     0x00001d1f      0x687 CMakeFiles/str_echo_freertos.dir/home/aselsan/Desktop/GPT_BACKUP/freertos-colibri-imx7/middleware/multicore/open-amp/rpmsg/rpmsg.c.obj
 .debug_loc     0x000023a6      0xeee CMakeFiles/str_echo_freertos.dir/home/aselsan/Desktop/GPT_BACKUP/freertos-colibri-imx7/middleware/multicore/open-amp/rpmsg/rpmsg_core.c.obj
 .debug_loc     0x00003294      0x410 CMakeFiles/str_echo_freertos.dir/home/aselsan/Desktop/GPT_BACKUP/freertos-colibri-imx7/middleware/multicore/open-amp/rpmsg/rpmsg_ext.c.obj
 .debug_loc     0x000036a4      0xbf7 CMakeFiles/str_echo_freertos.dir/home/aselsan/Desktop/GPT_BACKUP/freertos-colibri-imx7/middleware/multicore/open-amp/rpmsg/rpmsg_rtos.c.obj
 .debug_loc     0x0000429b      0xc09 CMakeFiles/str_echo_freertos.dir/home/aselsan/Desktop/GPT_BACKUP/freertos-colibri-imx7/middleware/multicore/open-amp/virtio/virtqueue.c.obj
 .debug_loc     0x00004ea4      0x113 CMakeFiles/str_echo_freertos.dir/home/aselsan/Desktop/GPT_BACKUP/freertos-colibri-imx7/platform/devices/MCIMX7D/startup/system_MCIMX7D_M4.c.obj
 .debug_loc     0x00004fb7      0x461 CMakeFiles/str_echo_freertos.dir/home/aselsan/Desktop/GPT_BACKUP/freertos-colibri-imx7/platform/drivers/src/ccm_analog_imx7d.c.obj
 .debug_loc     0x00005418      0x336 CMakeFiles/str_echo_freertos.dir/home/aselsan/Desktop/GPT_BACKUP/freertos-colibri-imx7/platform/drivers/src/ccm_imx7d.c.obj
 .debug_loc     0x0000574e      0x40b CMakeFiles/str_echo_freertos.dir/home/aselsan/Desktop/GPT_BACKUP/freertos-colibri-imx7/platform/drivers/src/mu_imx.c.obj
 .debug_loc     0x00005b59      0x6b0 CMakeFiles/str_echo_freertos.dir/home/aselsan/Desktop/GPT_BACKUP/freertos-colibri-imx7/platform/drivers/src/uart_imx.c.obj
 .debug_loc     0x00006209      0x140 CMakeFiles/str_echo_freertos.dir/home/aselsan/Desktop/GPT_BACKUP/freertos-colibri-imx7/platform/drivers/src/gpt.c.obj
 .debug_loc     0x00006349      0x2ba CMakeFiles/str_echo_freertos.dir/home/aselsan/Desktop/GPT_BACKUP/freertos-colibri-imx7/platform/drivers/src/gpio_imx.c.obj
 .debug_loc     0x00006603      0x4cc CMakeFiles/str_echo_freertos.dir/home/aselsan/Desktop/GPT_BACKUP/freertos-colibri-imx7/platform/utilities/src/debug_console_imx.c.obj
 .debug_loc     0x00006acf      0x1db CMakeFiles/str_echo_freertos.dir/home/aselsan/Desktop/GPT_BACKUP/freertos-colibri-imx7/platform/drivers/src/i2c_imx.c.obj
 .debug_loc     0x00006caa     0x1098 CMakeFiles/str_echo_freertos.dir/home/aselsan/Desktop/GPT_BACKUP/freertos-colibri-imx7/platform/utilities/src/print_scan.c.obj
 .debug_loc     0x00007d42       0x65 CMakeFiles/str_echo_freertos.dir/home/aselsan/Desktop/GPT_BACKUP/freertos-colibri-imx7/rtos/FreeRTOS/Source/list.c.obj
 .debug_loc     0x00007da7       0xa7 CMakeFiles/str_echo_freertos.dir/home/aselsan/Desktop/GPT_BACKUP/freertos-colibri-imx7/rtos/FreeRTOS/Source/portable/GCC/ARM_CM4F/port.c.obj
 .debug_loc     0x00007e4e      0x1cc CMakeFiles/str_echo_freertos.dir/home/aselsan/Desktop/GPT_BACKUP/freertos-colibri-imx7/rtos/FreeRTOS/Source/portable/MemMang/heap_2.c.obj
 .debug_loc     0x0000801a      0xa10 CMakeFiles/str_echo_freertos.dir/home/aselsan/Desktop/GPT_BACKUP/freertos-colibri-imx7/rtos/FreeRTOS/Source/queue.c.obj
 .debug_loc     0x00008a2a      0xf94 CMakeFiles/str_echo_freertos.dir/home/aselsan/Desktop/GPT_BACKUP/freertos-colibri-imx7/rtos/FreeRTOS/Source/tasks.c.obj
 .debug_loc     0x000099be       0x2c CMakeFiles/str_echo_freertos.dir/home/aselsan/Desktop/GPT_BACKUP/freertos-colibri-imx7/examples/imx7_colibri_m4/gpio_pins.c.obj
 .debug_loc     0x000099ea      0x5a3 CMakeFiles/str_echo_freertos.dir/home/aselsan/Desktop/GPT_BACKUP/freertos-colibri-imx7/examples/imx7_colibri_m4/clock_freq.c.obj
 .debug_loc     0x00009f8d       0x8d CMakeFiles/str_echo_freertos.dir/home/aselsan/Desktop/GPT_BACKUP/freertos-colibri-imx7/examples/imx7_colibri_m4/pin_mux.c.obj
 .debug_loc     0x0000a01a      0x3d5 CMakeFiles/str_echo_freertos.dir/home/aselsan/Desktop/GPT_BACKUP/freertos-colibri-imx7/examples/imx7_colibri_m4/demo_apps/rpmsg/str_echo_freertos/gpio.c.obj
 .debug_loc     0x0000a3ef      0xa71 CMakeFiles/str_echo_freertos.dir/home/aselsan/Desktop/GPT_BACKUP/freertos-colibri-imx7/examples/imx7_colibri_m4/demo_apps/rpmsg/str_echo_freertos/i2c.c.obj
 .debug_loc     0x0000ae60      0xa45 CMakeFiles/str_echo_freertos.dir/home/aselsan/Desktop/GPT_BACKUP/freertos-colibri-imx7/examples/imx7_colibri_m4/demo_apps/rpmsg/str_echo_freertos/comm_skb.c.obj

.debug_aranges  0x00000000      0xeb8
 .debug_aranges
                0x00000000       0x98 CMakeFiles/str_echo_freertos.dir/home/aselsan/Desktop/GPT_BACKUP/freertos-colibri-imx7/middleware/multicore/open-amp/common/hil/hil.c.obj
 .debug_aranges
                0x00000098       0x28 CMakeFiles/str_echo_freertos.dir/home/aselsan/Desktop/GPT_BACKUP/freertos-colibri-imx7/middleware/multicore/open-amp/common/llist/llist.c.obj
 .debug_aranges
                0x000000c0       0x40 CMakeFiles/str_echo_freertos.dir/home/aselsan/Desktop/GPT_BACKUP/freertos-colibri-imx7/middleware/multicore/open-amp/common/shm/sh_mem.c.obj
 .debug_aranges
                0x00000100      0x148 CMakeFiles/str_echo_freertos.dir/home/aselsan/Desktop/GPT_BACKUP/freertos-colibri-imx7/middleware/multicore/open-amp/porting/env/freertos/rpmsg_porting.c.obj
 .debug_aranges
                0x00000248       0xb0 CMakeFiles/str_echo_freertos.dir/home/aselsan/Desktop/GPT_BACKUP/freertos-colibri-imx7/middleware/multicore/open-amp/porting/imx7d_m4/platform.c.obj
 .debug_aranges
                0x000002f8       0x28 CMakeFiles/str_echo_freertos.dir/home/aselsan/Desktop/GPT_BACKUP/freertos-colibri-imx7/middleware/multicore/open-amp/porting/imx7d_m4/platform_info.c.obj
 .debug_aranges
                0x00000320       0x98 CMakeFiles/str_echo_freertos.dir/home/aselsan/Desktop/GPT_BACKUP/freertos-colibri-imx7/middleware/multicore/open-amp/rpmsg/remote_device.c.obj
 .debug_aranges
                0x000003b8       0x58 CMakeFiles/str_echo_freertos.dir/home/aselsan/Desktop/GPT_BACKUP/freertos-colibri-imx7/middleware/multicore/open-amp/rpmsg/rpmsg.c.obj
 .debug_aranges
                0x00000410       0xa8 CMakeFiles/str_echo_freertos.dir/home/aselsan/Desktop/GPT_BACKUP/freertos-colibri-imx7/middleware/multicore/open-amp/rpmsg/rpmsg_core.c.obj
 .debug_aranges
                0x000004b8       0x38 CMakeFiles/str_echo_freertos.dir/home/aselsan/Desktop/GPT_BACKUP/freertos-colibri-imx7/middleware/multicore/open-amp/rpmsg/rpmsg_ext.c.obj
 .debug_aranges
                0x000004f0       0x80 CMakeFiles/str_echo_freertos.dir/home/aselsan/Desktop/GPT_BACKUP/freertos-colibri-imx7/middleware/multicore/open-amp/rpmsg/rpmsg_rtos.c.obj
 .debug_aranges
                0x00000570       0xc0 CMakeFiles/str_echo_freertos.dir/home/aselsan/Desktop/GPT_BACKUP/freertos-colibri-imx7/middleware/multicore/open-amp/virtio/virtqueue.c.obj
 .debug_aranges
                0x00000630       0x20 CMakeFiles/str_echo_freertos.dir/home/aselsan/Desktop/GPT_BACKUP/freertos-colibri-imx7/platform/devices/MCIMX7D/startup/gcc/startup_MCIMX7D_M4.S.obj
 .debug_aranges
                0x00000650       0x28 CMakeFiles/str_echo_freertos.dir/home/aselsan/Desktop/GPT_BACKUP/freertos-colibri-imx7/platform/devices/MCIMX7D/startup/system_MCIMX7D_M4.c.obj
 .debug_aranges
                0x00000678       0x50 CMakeFiles/str_echo_freertos.dir/home/aselsan/Desktop/GPT_BACKUP/freertos-colibri-imx7/platform/drivers/src/ccm_analog_imx7d.c.obj
 .debug_aranges
                0x000006c8       0x30 CMakeFiles/str_echo_freertos.dir/home/aselsan/Desktop/GPT_BACKUP/freertos-colibri-imx7/platform/drivers/src/ccm_imx7d.c.obj
 .debug_aranges
                0x000006f8       0x50 CMakeFiles/str_echo_freertos.dir/home/aselsan/Desktop/GPT_BACKUP/freertos-colibri-imx7/platform/drivers/src/mu_imx.c.obj
 .debug_aranges
                0x00000748       0xe8 CMakeFiles/str_echo_freertos.dir/home/aselsan/Desktop/GPT_BACKUP/freertos-colibri-imx7/platform/drivers/src/uart_imx.c.obj
 .debug_aranges
                0x00000830       0x30 CMakeFiles/str_echo_freertos.dir/home/aselsan/Desktop/GPT_BACKUP/freertos-colibri-imx7/platform/drivers/src/gpt.c.obj
 .debug_aranges
                0x00000860       0x38 CMakeFiles/str_echo_freertos.dir/home/aselsan/Desktop/GPT_BACKUP/freertos-colibri-imx7/platform/drivers/src/gpio_imx.c.obj
 .debug_aranges
                0x00000898       0x70 CMakeFiles/str_echo_freertos.dir/home/aselsan/Desktop/GPT_BACKUP/freertos-colibri-imx7/platform/utilities/src/debug_console_imx.c.obj
 .debug_aranges
                0x00000908       0x40 CMakeFiles/str_echo_freertos.dir/home/aselsan/Desktop/GPT_BACKUP/freertos-colibri-imx7/platform/drivers/src/i2c_imx.c.obj
 .debug_aranges
                0x00000948       0x48 CMakeFiles/str_echo_freertos.dir/home/aselsan/Desktop/GPT_BACKUP/freertos-colibri-imx7/platform/utilities/src/print_scan.c.obj
 .debug_aranges
                0x00000990       0x40 CMakeFiles/str_echo_freertos.dir/home/aselsan/Desktop/GPT_BACKUP/freertos-colibri-imx7/rtos/FreeRTOS/Source/list.c.obj
 .debug_aranges
                0x000009d0       0x80 CMakeFiles/str_echo_freertos.dir/home/aselsan/Desktop/GPT_BACKUP/freertos-colibri-imx7/rtos/FreeRTOS/Source/portable/GCC/ARM_CM4F/port.c.obj
 .debug_aranges
                0x00000a50       0x40 CMakeFiles/str_echo_freertos.dir/home/aselsan/Desktop/GPT_BACKUP/freertos-colibri-imx7/rtos/FreeRTOS/Source/portable/MemMang/heap_2.c.obj
 .debug_aranges
                0x00000a90       0xc8 CMakeFiles/str_echo_freertos.dir/home/aselsan/Desktop/GPT_BACKUP/freertos-colibri-imx7/rtos/FreeRTOS/Source/queue.c.obj
 .debug_aranges
                0x00000b58      0x130 CMakeFiles/str_echo_freertos.dir/home/aselsan/Desktop/GPT_BACKUP/freertos-colibri-imx7/rtos/FreeRTOS/Source/tasks.c.obj
 .debug_aranges
                0x00000c88       0x30 CMakeFiles/str_echo_freertos.dir/home/aselsan/Desktop/GPT_BACKUP/freertos-colibri-imx7/examples/imx7_colibri_m4/board.c.obj
 .debug_aranges
                0x00000cb8       0x20 CMakeFiles/str_echo_freertos.dir/home/aselsan/Desktop/GPT_BACKUP/freertos-colibri-imx7/examples/imx7_colibri_m4/gpio_pins.c.obj
 .debug_aranges
                0x00000cd8       0x40 CMakeFiles/str_echo_freertos.dir/home/aselsan/Desktop/GPT_BACKUP/freertos-colibri-imx7/examples/imx7_colibri_m4/clock_freq.c.obj
 .debug_aranges
                0x00000d18       0x38 CMakeFiles/str_echo_freertos.dir/home/aselsan/Desktop/GPT_BACKUP/freertos-colibri-imx7/examples/imx7_colibri_m4/pin_mux.c.obj
 .debug_aranges
                0x00000d50       0x20 CMakeFiles/str_echo_freertos.dir/home/aselsan/Desktop/GPT_BACKUP/freertos-colibri-imx7/examples/imx7_colibri_m4/demo_apps/rpmsg/str_echo_freertos/hardware_init.c.obj
 .debug_aranges
                0x00000d70       0x28 CMakeFiles/str_echo_freertos.dir/home/aselsan/Desktop/GPT_BACKUP/freertos-colibri-imx7/examples/imx7_colibri_m4/demo_apps/rpmsg/str_echo_freertos/str_echo_freertos.c.obj
 .debug_aranges
                0x00000d98       0x28 CMakeFiles/str_echo_freertos.dir/home/aselsan/Desktop/GPT_BACKUP/freertos-colibri-imx7/examples/imx7_colibri_m4/demo_apps/rpmsg/str_echo_freertos/timer.c.obj
 .debug_aranges
                0x00000dc0       0x40 CMakeFiles/str_echo_freertos.dir/home/aselsan/Desktop/GPT_BACKUP/freertos-colibri-imx7/examples/imx7_colibri_m4/demo_apps/rpmsg/str_echo_freertos/gpio.c.obj
 .debug_aranges
                0x00000e00       0x50 CMakeFiles/str_echo_freertos.dir/home/aselsan/Desktop/GPT_BACKUP/freertos-colibri-imx7/examples/imx7_colibri_m4/demo_apps/rpmsg/str_echo_freertos/i2c.c.obj
 .debug_aranges
                0x00000e50       0x68 CMakeFiles/str_echo_freertos.dir/home/aselsan/Desktop/GPT_BACKUP/freertos-colibri-imx7/examples/imx7_colibri_m4/demo_apps/rpmsg/str_echo_freertos/comm_skb.c.obj

.debug_ranges   0x00000000      0xcc8
 .debug_ranges  0x00000000       0x88 CMakeFiles/str_echo_freertos.dir/home/aselsan/Desktop/GPT_BACKUP/freertos-colibri-imx7/middleware/multicore/open-amp/common/hil/hil.c.obj
 .debug_ranges  0x00000088       0x18 CMakeFiles/str_echo_freertos.dir/home/aselsan/Desktop/GPT_BACKUP/freertos-colibri-imx7/middleware/multicore/open-amp/common/llist/llist.c.obj
 .debug_ranges  0x000000a0       0x30 CMakeFiles/str_echo_freertos.dir/home/aselsan/Desktop/GPT_BACKUP/freertos-colibri-imx7/middleware/multicore/open-amp/common/shm/sh_mem.c.obj
 .debug_ranges  0x000000d0      0x138 CMakeFiles/str_echo_freertos.dir/home/aselsan/Desktop/GPT_BACKUP/freertos-colibri-imx7/middleware/multicore/open-amp/porting/env/freertos/rpmsg_porting.c.obj
 .debug_ranges  0x00000208       0xc0 CMakeFiles/str_echo_freertos.dir/home/aselsan/Desktop/GPT_BACKUP/freertos-colibri-imx7/middleware/multicore/open-amp/porting/imx7d_m4/platform.c.obj
 .debug_ranges  0x000002c8       0x18 CMakeFiles/str_echo_freertos.dir/home/aselsan/Desktop/GPT_BACKUP/freertos-colibri-imx7/middleware/multicore/open-amp/porting/imx7d_m4/platform_info.c.obj
 .debug_ranges  0x000002e0       0x88 CMakeFiles/str_echo_freertos.dir/home/aselsan/Desktop/GPT_BACKUP/freertos-colibri-imx7/middleware/multicore/open-amp/rpmsg/remote_device.c.obj
 .debug_ranges  0x00000368       0x48 CMakeFiles/str_echo_freertos.dir/home/aselsan/Desktop/GPT_BACKUP/freertos-colibri-imx7/middleware/multicore/open-amp/rpmsg/rpmsg.c.obj
 .debug_ranges  0x000003b0       0x98 CMakeFiles/str_echo_freertos.dir/home/aselsan/Desktop/GPT_BACKUP/freertos-colibri-imx7/middleware/multicore/open-amp/rpmsg/rpmsg_core.c.obj
 .debug_ranges  0x00000448       0x28 CMakeFiles/str_echo_freertos.dir/home/aselsan/Desktop/GPT_BACKUP/freertos-colibri-imx7/middleware/multicore/open-amp/rpmsg/rpmsg_ext.c.obj
 .debug_ranges  0x00000470       0x70 CMakeFiles/str_echo_freertos.dir/home/aselsan/Desktop/GPT_BACKUP/freertos-colibri-imx7/middleware/multicore/open-amp/rpmsg/rpmsg_rtos.c.obj
 .debug_ranges  0x000004e0       0xb0 CMakeFiles/str_echo_freertos.dir/home/aselsan/Desktop/GPT_BACKUP/freertos-colibri-imx7/middleware/multicore/open-amp/virtio/virtqueue.c.obj
 .debug_ranges  0x00000590       0x18 CMakeFiles/str_echo_freertos.dir/home/aselsan/Desktop/GPT_BACKUP/freertos-colibri-imx7/platform/devices/MCIMX7D/startup/system_MCIMX7D_M4.c.obj
 .debug_ranges  0x000005a8       0x40 CMakeFiles/str_echo_freertos.dir/home/aselsan/Desktop/GPT_BACKUP/freertos-colibri-imx7/platform/drivers/src/ccm_analog_imx7d.c.obj
 .debug_ranges  0x000005e8       0x20 CMakeFiles/str_echo_freertos.dir/home/aselsan/Desktop/GPT_BACKUP/freertos-colibri-imx7/platform/drivers/src/ccm_imx7d.c.obj
 .debug_ranges  0x00000608       0x40 CMakeFiles/str_echo_freertos.dir/home/aselsan/Desktop/GPT_BACKUP/freertos-colibri-imx7/platform/drivers/src/mu_imx.c.obj
 .debug_ranges  0x00000648       0xd8 CMakeFiles/str_echo_freertos.dir/home/aselsan/Desktop/GPT_BACKUP/freertos-colibri-imx7/platform/drivers/src/uart_imx.c.obj
 .debug_ranges  0x00000720       0x20 CMakeFiles/str_echo_freertos.dir/home/aselsan/Desktop/GPT_BACKUP/freertos-colibri-imx7/platform/drivers/src/gpt.c.obj
 .debug_ranges  0x00000740       0x28 CMakeFiles/str_echo_freertos.dir/home/aselsan/Desktop/GPT_BACKUP/freertos-colibri-imx7/platform/drivers/src/gpio_imx.c.obj
 .debug_ranges  0x00000768       0x60 CMakeFiles/str_echo_freertos.dir/home/aselsan/Desktop/GPT_BACKUP/freertos-colibri-imx7/platform/utilities/src/debug_console_imx.c.obj
 .debug_ranges  0x000007c8       0x30 CMakeFiles/str_echo_freertos.dir/home/aselsan/Desktop/GPT_BACKUP/freertos-colibri-imx7/platform/drivers/src/i2c_imx.c.obj
 .debug_ranges  0x000007f8       0x38 CMakeFiles/str_echo_freertos.dir/home/aselsan/Desktop/GPT_BACKUP/freertos-colibri-imx7/platform/utilities/src/print_scan.c.obj
 .debug_ranges  0x00000830       0x30 CMakeFiles/str_echo_freertos.dir/home/aselsan/Desktop/GPT_BACKUP/freertos-colibri-imx7/rtos/FreeRTOS/Source/list.c.obj
 .debug_ranges  0x00000860       0x70 CMakeFiles/str_echo_freertos.dir/home/aselsan/Desktop/GPT_BACKUP/freertos-colibri-imx7/rtos/FreeRTOS/Source/portable/GCC/ARM_CM4F/port.c.obj
 .debug_ranges  0x000008d0       0x30 CMakeFiles/str_echo_freertos.dir/home/aselsan/Desktop/GPT_BACKUP/freertos-colibri-imx7/rtos/FreeRTOS/Source/portable/MemMang/heap_2.c.obj
 .debug_ranges  0x00000900       0xb8 CMakeFiles/str_echo_freertos.dir/home/aselsan/Desktop/GPT_BACKUP/freertos-colibri-imx7/rtos/FreeRTOS/Source/queue.c.obj
 .debug_ranges  0x000009b8      0x150 CMakeFiles/str_echo_freertos.dir/home/aselsan/Desktop/GPT_BACKUP/freertos-colibri-imx7/rtos/FreeRTOS/Source/tasks.c.obj
 .debug_ranges  0x00000b08       0x20 CMakeFiles/str_echo_freertos.dir/home/aselsan/Desktop/GPT_BACKUP/freertos-colibri-imx7/examples/imx7_colibri_m4/board.c.obj
 .debug_ranges  0x00000b28       0x10 CMakeFiles/str_echo_freertos.dir/home/aselsan/Desktop/GPT_BACKUP/freertos-colibri-imx7/examples/imx7_colibri_m4/gpio_pins.c.obj
 .debug_ranges  0x00000b38       0x30 CMakeFiles/str_echo_freertos.dir/home/aselsan/Desktop/GPT_BACKUP/freertos-colibri-imx7/examples/imx7_colibri_m4/clock_freq.c.obj
 .debug_ranges  0x00000b68       0x28 CMakeFiles/str_echo_freertos.dir/home/aselsan/Desktop/GPT_BACKUP/freertos-colibri-imx7/examples/imx7_colibri_m4/pin_mux.c.obj
 .debug_ranges  0x00000b90       0x10 CMakeFiles/str_echo_freertos.dir/home/aselsan/Desktop/GPT_BACKUP/freertos-colibri-imx7/examples/imx7_colibri_m4/demo_apps/rpmsg/str_echo_freertos/hardware_init.c.obj
 .debug_ranges  0x00000ba0       0x18 CMakeFiles/str_echo_freertos.dir/home/aselsan/Desktop/GPT_BACKUP/freertos-colibri-imx7/examples/imx7_colibri_m4/demo_apps/rpmsg/str_echo_freertos/str_echo_freertos.c.obj
 .debug_ranges  0x00000bb8       0x18 CMakeFiles/str_echo_freertos.dir/home/aselsan/Desktop/GPT_BACKUP/freertos-colibri-imx7/examples/imx7_colibri_m4/demo_apps/rpmsg/str_echo_freertos/timer.c.obj
 .debug_ranges  0x00000bd0       0x30 CMakeFiles/str_echo_freertos.dir/home/aselsan/Desktop/GPT_BACKUP/freertos-colibri-imx7/examples/imx7_colibri_m4/demo_apps/rpmsg/str_echo_freertos/gpio.c.obj
 .debug_ranges  0x00000c00       0x40 CMakeFiles/str_echo_freertos.dir/home/aselsan/Desktop/GPT_BACKUP/freertos-colibri-imx7/examples/imx7_colibri_m4/demo_apps/rpmsg/str_echo_freertos/i2c.c.obj
 .debug_ranges  0x00000c40       0x88 CMakeFiles/str_echo_freertos.dir/home/aselsan/Desktop/GPT_BACKUP/freertos-colibri-imx7/examples/imx7_colibri_m4/demo_apps/rpmsg/str_echo_freertos/comm_skb.c.obj

.debug_line     0x00000000     0xc2b8
 .debug_line    0x00000000      0x4f6 CMakeFiles/str_echo_freertos.dir/home/aselsan/Desktop/GPT_BACKUP/freertos-colibri-imx7/middleware/multicore/open-amp/common/hil/hil.c.obj
 .debug_line    0x000004f6       0xcb CMakeFiles/str_echo_freertos.dir/home/aselsan/Desktop/GPT_BACKUP/freertos-colibri-imx7/middleware/multicore/open-amp/common/llist/llist.c.obj
 .debug_line    0x000005c1      0x1f5 CMakeFiles/str_echo_freertos.dir/home/aselsan/Desktop/GPT_BACKUP/freertos-colibri-imx7/middleware/multicore/open-amp/common/shm/sh_mem.c.obj
 .debug_line    0x000007b6      0x7f7 CMakeFiles/str_echo_freertos.dir/home/aselsan/Desktop/GPT_BACKUP/freertos-colibri-imx7/middleware/multicore/open-amp/porting/env/freertos/rpmsg_porting.c.obj
 .debug_line    0x00000fad      0x919 CMakeFiles/str_echo_freertos.dir/home/aselsan/Desktop/GPT_BACKUP/freertos-colibri-imx7/middleware/multicore/open-amp/porting/imx7d_m4/platform.c.obj
 .debug_line    0x000018c6      0x35d CMakeFiles/str_echo_freertos.dir/home/aselsan/Desktop/GPT_BACKUP/freertos-colibri-imx7/middleware/multicore/open-amp/porting/imx7d_m4/platform_info.c.obj
 .debug_line    0x00001c23      0x5a0 CMakeFiles/str_echo_freertos.dir/home/aselsan/Desktop/GPT_BACKUP/freertos-colibri-imx7/middleware/multicore/open-amp/rpmsg/remote_device.c.obj
 .debug_line    0x000021c3      0x4eb CMakeFiles/str_echo_freertos.dir/home/aselsan/Desktop/GPT_BACKUP/freertos-colibri-imx7/middleware/multicore/open-amp/rpmsg/rpmsg.c.obj
 .debug_line    0x000026ae      0x60f CMakeFiles/str_echo_freertos.dir/home/aselsan/Desktop/GPT_BACKUP/freertos-colibri-imx7/middleware/multicore/open-amp/rpmsg/rpmsg_core.c.obj
 .debug_line    0x00002cbd      0x4ed CMakeFiles/str_echo_freertos.dir/home/aselsan/Desktop/GPT_BACKUP/freertos-colibri-imx7/middleware/multicore/open-amp/rpmsg/rpmsg_ext.c.obj
 .debug_line    0x000031aa      0x68a CMakeFiles/str_echo_freertos.dir/home/aselsan/Desktop/GPT_BACKUP/freertos-colibri-imx7/middleware/multicore/open-amp/rpmsg/rpmsg_rtos.c.obj
 .debug_line    0x00003834      0x4e1 CMakeFiles/str_echo_freertos.dir/home/aselsan/Desktop/GPT_BACKUP/freertos-colibri-imx7/middleware/multicore/open-amp/virtio/virtqueue.c.obj
 .debug_line    0x00003d15       0xb0 CMakeFiles/str_echo_freertos.dir/home/aselsan/Desktop/GPT_BACKUP/freertos-colibri-imx7/platform/devices/MCIMX7D/startup/gcc/startup_MCIMX7D_M4.S.obj
 .debug_line    0x00003dc5      0x34b CMakeFiles/str_echo_freertos.dir/home/aselsan/Desktop/GPT_BACKUP/freertos-colibri-imx7/platform/devices/MCIMX7D/startup/system_MCIMX7D_M4.c.obj
 .debug_line    0x00004110      0x4bc CMakeFiles/str_echo_freertos.dir/home/aselsan/Desktop/GPT_BACKUP/freertos-colibri-imx7/platform/drivers/src/ccm_analog_imx7d.c.obj
 .debug_line    0x000045cc      0x3e0 CMakeFiles/str_echo_freertos.dir/home/aselsan/Desktop/GPT_BACKUP/freertos-colibri-imx7/platform/drivers/src/ccm_imx7d.c.obj
 .debug_line    0x000049ac      0x45a CMakeFiles/str_echo_freertos.dir/home/aselsan/Desktop/GPT_BACKUP/freertos-colibri-imx7/platform/drivers/src/mu_imx.c.obj
 .debug_line    0x00004e06      0x5e4 CMakeFiles/str_echo_freertos.dir/home/aselsan/Desktop/GPT_BACKUP/freertos-colibri-imx7/platform/drivers/src/uart_imx.c.obj
 .debug_line    0x000053ea      0x3bf CMakeFiles/str_echo_freertos.dir/home/aselsan/Desktop/GPT_BACKUP/freertos-colibri-imx7/platform/drivers/src/gpt.c.obj
 .debug_line    0x000057a9      0x3de CMakeFiles/str_echo_freertos.dir/home/aselsan/Desktop/GPT_BACKUP/freertos-colibri-imx7/platform/drivers/src/gpio_imx.c.obj
 .debug_line    0x00005b87      0x54e CMakeFiles/str_echo_freertos.dir/home/aselsan/Desktop/GPT_BACKUP/freertos-colibri-imx7/platform/utilities/src/debug_console_imx.c.obj
 .debug_line    0x000060d5      0x3ec CMakeFiles/str_echo_freertos.dir/home/aselsan/Desktop/GPT_BACKUP/freertos-colibri-imx7/platform/drivers/src/i2c_imx.c.obj
 .debug_line    0x000064c1      0x489 CMakeFiles/str_echo_freertos.dir/home/aselsan/Desktop/GPT_BACKUP/freertos-colibri-imx7/platform/utilities/src/print_scan.c.obj
 .debug_line    0x0000694a      0x2dd CMakeFiles/str_echo_freertos.dir/home/aselsan/Desktop/GPT_BACKUP/freertos-colibri-imx7/rtos/FreeRTOS/Source/list.c.obj
 .debug_line    0x00006c27      0x44b CMakeFiles/str_echo_freertos.dir/home/aselsan/Desktop/GPT_BACKUP/freertos-colibri-imx7/rtos/FreeRTOS/Source/portable/GCC/ARM_CM4F/port.c.obj
 .debug_line    0x00007072      0x327 CMakeFiles/str_echo_freertos.dir/home/aselsan/Desktop/GPT_BACKUP/freertos-colibri-imx7/rtos/FreeRTOS/Source/portable/MemMang/heap_2.c.obj
 .debug_line    0x00007399      0x88b CMakeFiles/str_echo_freertos.dir/home/aselsan/Desktop/GPT_BACKUP/freertos-colibri-imx7/rtos/FreeRTOS/Source/queue.c.obj
 .debug_line    0x00007c24      0x9aa CMakeFiles/str_echo_freertos.dir/home/aselsan/Desktop/GPT_BACKUP/freertos-colibri-imx7/rtos/FreeRTOS/Source/tasks.c.obj
 .debug_line    0x000085ce      0x43f CMakeFiles/str_echo_freertos.dir/home/aselsan/Desktop/GPT_BACKUP/freertos-colibri-imx7/examples/imx7_colibri_m4/board.c.obj
 .debug_line    0x00008a0d      0x2eb CMakeFiles/str_echo_freertos.dir/home/aselsan/Desktop/GPT_BACKUP/freertos-colibri-imx7/examples/imx7_colibri_m4/gpio_pins.c.obj
 .debug_line    0x00008cf8      0x465 CMakeFiles/str_echo_freertos.dir/home/aselsan/Desktop/GPT_BACKUP/freertos-colibri-imx7/examples/imx7_colibri_m4/clock_freq.c.obj
 .debug_line    0x0000915d      0x3a2 CMakeFiles/str_echo_freertos.dir/home/aselsan/Desktop/GPT_BACKUP/freertos-colibri-imx7/examples/imx7_colibri_m4/pin_mux.c.obj
 .debug_line    0x000094ff      0x573 CMakeFiles/str_echo_freertos.dir/home/aselsan/Desktop/GPT_BACKUP/freertos-colibri-imx7/examples/imx7_colibri_m4/demo_apps/rpmsg/str_echo_freertos/hardware_init.c.obj
 .debug_line    0x00009a72      0x6d3 CMakeFiles/str_echo_freertos.dir/home/aselsan/Desktop/GPT_BACKUP/freertos-colibri-imx7/examples/imx7_colibri_m4/demo_apps/rpmsg/str_echo_freertos/str_echo_freertos.c.obj
 .debug_line    0x0000a145      0x47a CMakeFiles/str_echo_freertos.dir/home/aselsan/Desktop/GPT_BACKUP/freertos-colibri-imx7/examples/imx7_colibri_m4/demo_apps/rpmsg/str_echo_freertos/timer.c.obj
 .debug_line    0x0000a5bf      0x5f5 CMakeFiles/str_echo_freertos.dir/home/aselsan/Desktop/GPT_BACKUP/freertos-colibri-imx7/examples/imx7_colibri_m4/demo_apps/rpmsg/str_echo_freertos/gpio.c.obj
 .debug_line    0x0000abb4      0x805 CMakeFiles/str_echo_freertos.dir/home/aselsan/Desktop/GPT_BACKUP/freertos-colibri-imx7/examples/imx7_colibri_m4/demo_apps/rpmsg/str_echo_freertos/i2c.c.obj
 .debug_line    0x0000b3b9      0xeff CMakeFiles/str_echo_freertos.dir/home/aselsan/Desktop/GPT_BACKUP/freertos-colibri-imx7/examples/imx7_colibri_m4/demo_apps/rpmsg/str_echo_freertos/comm_skb.c.obj

.debug_str      0x00000000     0xaab6
 .debug_str     0x00000000      0xc51 CMakeFiles/str_echo_freertos.dir/home/aselsan/Desktop/GPT_BACKUP/freertos-colibri-imx7/middleware/multicore/open-amp/common/hil/hil.c.obj
                                0xd97 (size before relaxing)
 .debug_str     0x00000c51       0x6a CMakeFiles/str_echo_freertos.dir/home/aselsan/Desktop/GPT_BACKUP/freertos-colibri-imx7/middleware/multicore/open-amp/common/llist/llist.c.obj
                                0x6b0 (size before relaxing)
 .debug_str     0x00000cbb      0x189 CMakeFiles/str_echo_freertos.dir/home/aselsan/Desktop/GPT_BACKUP/freertos-colibri-imx7/middleware/multicore/open-amp/common/shm/sh_mem.c.obj
                                0x8f3 (size before relaxing)
 .debug_str     0x00000e44      0x51e CMakeFiles/str_echo_freertos.dir/home/aselsan/Desktop/GPT_BACKUP/freertos-colibri-imx7/middleware/multicore/open-amp/porting/env/freertos/rpmsg_porting.c.obj
                                0xd39 (size before relaxing)
 .debug_str     0x00001362      0xa92 CMakeFiles/str_echo_freertos.dir/home/aselsan/Desktop/GPT_BACKUP/freertos-colibri-imx7/middleware/multicore/open-amp/porting/imx7d_m4/platform.c.obj
                               0x16c9 (size before relaxing)
 .debug_str     0x00001df4       0x81 CMakeFiles/str_echo_freertos.dir/home/aselsan/Desktop/GPT_BACKUP/freertos-colibri-imx7/middleware/multicore/open-amp/porting/imx7d_m4/platform_info.c.obj
                                0xba3 (size before relaxing)
 .debug_str     0x00001e75      0x437 CMakeFiles/str_echo_freertos.dir/home/aselsan/Desktop/GPT_BACKUP/freertos-colibri-imx7/middleware/multicore/open-amp/rpmsg/remote_device.c.obj
                               0x10b9 (size before relaxing)
 .debug_str     0x000022ac      0x154 CMakeFiles/str_echo_freertos.dir/home/aselsan/Desktop/GPT_BACKUP/freertos-colibri-imx7/middleware/multicore/open-amp/rpmsg/rpmsg.c.obj
                                0xeb7 (size before relaxing)
 .debug_str     0x00002400      0x1d7 CMakeFiles/str_echo_freertos.dir/home/aselsan/Desktop/GPT_BACKUP/freertos-colibri-imx7/middleware/multicore/open-amp/rpmsg/rpmsg_core.c.obj
                               0x1078 (size before relaxing)
 .debug_str     0x000025d7       0xd3 CMakeFiles/str_echo_freertos.dir/home/aselsan/Desktop/GPT_BACKUP/freertos-colibri-imx7/middleware/multicore/open-amp/rpmsg/rpmsg_ext.c.obj
                                0xd96 (size before relaxing)
 .debug_str     0x000026aa      0x1eb CMakeFiles/str_echo_freertos.dir/home/aselsan/Desktop/GPT_BACKUP/freertos-colibri-imx7/middleware/multicore/open-amp/rpmsg/rpmsg_rtos.c.obj
                                0xf82 (size before relaxing)
 .debug_str     0x00002895      0x1fb CMakeFiles/str_echo_freertos.dir/home/aselsan/Desktop/GPT_BACKUP/freertos-colibri-imx7/middleware/multicore/open-amp/virtio/virtqueue.c.obj
                                0xcb6 (size before relaxing)
 .debug_str     0x00002a90      0x583 CMakeFiles/str_echo_freertos.dir/home/aselsan/Desktop/GPT_BACKUP/freertos-colibri-imx7/platform/devices/MCIMX7D/startup/system_MCIMX7D_M4.c.obj
                                0xcbc (size before relaxing)
 .debug_str     0x00003013      0x231 CMakeFiles/str_echo_freertos.dir/home/aselsan/Desktop/GPT_BACKUP/freertos-colibri-imx7/platform/drivers/src/ccm_analog_imx7d.c.obj
                                0xbb1 (size before relaxing)
 .debug_str     0x00003244       0xa7 CMakeFiles/str_echo_freertos.dir/home/aselsan/Desktop/GPT_BACKUP/freertos-colibri-imx7/platform/drivers/src/ccm_imx7d.c.obj
                                0x919 (size before relaxing)
 .debug_str     0x000032eb       0xec CMakeFiles/str_echo_freertos.dir/home/aselsan/Desktop/GPT_BACKUP/freertos-colibri-imx7/platform/drivers/src/mu_imx.c.obj
                                0x8ae (size before relaxing)
 .debug_str     0x000033d7      0x450 CMakeFiles/str_echo_freertos.dir/home/aselsan/Desktop/GPT_BACKUP/freertos-colibri-imx7/platform/drivers/src/uart_imx.c.obj
                                0xb61 (size before relaxing)
 .debug_str     0x00003827      0x16f CMakeFiles/str_echo_freertos.dir/home/aselsan/Desktop/GPT_BACKUP/freertos-colibri-imx7/platform/drivers/src/gpt.c.obj
                                0x858 (size before relaxing)
 .debug_str     0x00003996      0x1f6 CMakeFiles/str_echo_freertos.dir/home/aselsan/Desktop/GPT_BACKUP/freertos-colibri-imx7/platform/drivers/src/gpio_imx.c.obj
                                0x8e6 (size before relaxing)
 .debug_str     0x00003b8c      0x63e CMakeFiles/str_echo_freertos.dir/home/aselsan/Desktop/GPT_BACKUP/freertos-colibri-imx7/platform/utilities/src/debug_console_imx.c.obj
                                0xefe (size before relaxing)
 .debug_str     0x000041ca      0x11e CMakeFiles/str_echo_freertos.dir/home/aselsan/Desktop/GPT_BACKUP/freertos-colibri-imx7/platform/drivers/src/i2c_imx.c.obj
                                0x84a (size before relaxing)
 .debug_str     0x000042e8      0x195 CMakeFiles/str_echo_freertos.dir/home/aselsan/Desktop/GPT_BACKUP/freertos-colibri-imx7/platform/utilities/src/print_scan.c.obj
                                0x912 (size before relaxing)
 .debug_str     0x0000447d      0x170 CMakeFiles/str_echo_freertos.dir/home/aselsan/Desktop/GPT_BACKUP/freertos-colibri-imx7/rtos/FreeRTOS/Source/list.c.obj
                                0x825 (size before relaxing)
 .debug_str     0x000045ed      0x2d4 CMakeFiles/str_echo_freertos.dir/home/aselsan/Desktop/GPT_BACKUP/freertos-colibri-imx7/rtos/FreeRTOS/Source/portable/GCC/ARM_CM4F/port.c.obj
                                0x991 (size before relaxing)
 .debug_str     0x000048c1      0x1a2 CMakeFiles/str_echo_freertos.dir/home/aselsan/Desktop/GPT_BACKUP/freertos-colibri-imx7/rtos/FreeRTOS/Source/portable/MemMang/heap_2.c.obj
                                0x87a (size before relaxing)
 .debug_str     0x00004a63      0x42e CMakeFiles/str_echo_freertos.dir/home/aselsan/Desktop/GPT_BACKUP/freertos-colibri-imx7/rtos/FreeRTOS/Source/queue.c.obj
                                0xd64 (size before relaxing)
 .debug_str     0x00004e91      0x700 CMakeFiles/str_echo_freertos.dir/home/aselsan/Desktop/GPT_BACKUP/freertos-colibri-imx7/rtos/FreeRTOS/Source/tasks.c.obj
                               0x114e (size before relaxing)
 .debug_str     0x00005591     0x1344 CMakeFiles/str_echo_freertos.dir/home/aselsan/Desktop/GPT_BACKUP/freertos-colibri-imx7/examples/imx7_colibri_m4/board.c.obj
                               0x1da7 (size before relaxing)
 .debug_str     0x000068d5      0x154 CMakeFiles/str_echo_freertos.dir/home/aselsan/Desktop/GPT_BACKUP/freertos-colibri-imx7/examples/imx7_colibri_m4/gpio_pins.c.obj
                                0x9f4 (size before relaxing)
 .debug_str     0x00006a29      0x573 CMakeFiles/str_echo_freertos.dir/home/aselsan/Desktop/GPT_BACKUP/freertos-colibri-imx7/examples/imx7_colibri_m4/clock_freq.c.obj
                               0x13ae (size before relaxing)
 .debug_str     0x00006f9c     0x2f20 CMakeFiles/str_echo_freertos.dir/home/aselsan/Desktop/GPT_BACKUP/freertos-colibri-imx7/examples/imx7_colibri_m4/pin_mux.c.obj
                               0x3794 (size before relaxing)
 .debug_str     0x00009ebc       0xa2 CMakeFiles/str_echo_freertos.dir/home/aselsan/Desktop/GPT_BACKUP/freertos-colibri-imx7/examples/imx7_colibri_m4/demo_apps/rpmsg/str_echo_freertos/hardware_init.c.obj
                               0x4900 (size before relaxing)
 .debug_str     0x00009f5e       0xea CMakeFiles/str_echo_freertos.dir/home/aselsan/Desktop/GPT_BACKUP/freertos-colibri-imx7/examples/imx7_colibri_m4/demo_apps/rpmsg/str_echo_freertos/str_echo_freertos.c.obj
                               0x115b (size before relaxing)
 .debug_str     0x0000a048      0x217 CMakeFiles/str_echo_freertos.dir/home/aselsan/Desktop/GPT_BACKUP/freertos-colibri-imx7/examples/imx7_colibri_m4/demo_apps/rpmsg/str_echo_freertos/timer.c.obj
                               0x2189 (size before relaxing)
 .debug_str     0x0000a25f      0x191 CMakeFiles/str_echo_freertos.dir/home/aselsan/Desktop/GPT_BACKUP/freertos-colibri-imx7/examples/imx7_colibri_m4/demo_apps/rpmsg/str_echo_freertos/gpio.c.obj
                                0xb82 (size before relaxing)
 .debug_str     0x0000a3f0      0x3ae CMakeFiles/str_echo_freertos.dir/home/aselsan/Desktop/GPT_BACKUP/freertos-colibri-imx7/examples/imx7_colibri_m4/demo_apps/rpmsg/str_echo_freertos/i2c.c.obj
                                0xe7b (size before relaxing)
 .debug_str     0x0000a79e      0x318 CMakeFiles/str_echo_freertos.dir/home/aselsan/Desktop/GPT_BACKUP/freertos-colibri-imx7/examples/imx7_colibri_m4/demo_apps/rpmsg/str_echo_freertos/comm_skb.c.obj
                               0x1695 (size before relaxing)

.comment        0x00000000       0x70
 .comment       0x00000000       0x70 CMakeFiles/str_echo_freertos.dir/home/aselsan/Desktop/GPT_BACKUP/freertos-colibri-imx7/middleware/multicore/open-amp/common/hil/hil.c.obj
                                 0x71 (size before relaxing)
 .comment       0x00000000       0x71 CMakeFiles/str_echo_freertos.dir/home/aselsan/Desktop/GPT_BACKUP/freertos-colibri-imx7/middleware/multicore/open-amp/common/llist/llist.c.obj
 .comment       0x00000000       0x71 CMakeFiles/str_echo_freertos.dir/home/aselsan/Desktop/GPT_BACKUP/freertos-colibri-imx7/middleware/multicore/open-amp/common/shm/sh_mem.c.obj
 .comment       0x00000000       0x71 CMakeFiles/str_echo_freertos.dir/home/aselsan/Desktop/GPT_BACKUP/freertos-colibri-imx7/middleware/multicore/open-amp/porting/env/freertos/rpmsg_porting.c.obj
 .comment       0x00000000       0x71 CMakeFiles/str_echo_freertos.dir/home/aselsan/Desktop/GPT_BACKUP/freertos-colibri-imx7/middleware/multicore/open-amp/porting/imx7d_m4/platform.c.obj
 .comment       0x00000000       0x71 CMakeFiles/str_echo_freertos.dir/home/aselsan/Desktop/GPT_BACKUP/freertos-colibri-imx7/middleware/multicore/open-amp/porting/imx7d_m4/platform_info.c.obj
 .comment       0x00000000       0x71 CMakeFiles/str_echo_freertos.dir/home/aselsan/Desktop/GPT_BACKUP/freertos-colibri-imx7/middleware/multicore/open-amp/rpmsg/remote_device.c.obj
 .comment       0x00000000       0x71 CMakeFiles/str_echo_freertos.dir/home/aselsan/Desktop/GPT_BACKUP/freertos-colibri-imx7/middleware/multicore/open-amp/rpmsg/rpmsg.c.obj
 .comment       0x00000000       0x71 CMakeFiles/str_echo_freertos.dir/home/aselsan/Desktop/GPT_BACKUP/freertos-colibri-imx7/middleware/multicore/open-amp/rpmsg/rpmsg_core.c.obj
 .comment       0x00000000       0x71 CMakeFiles/str_echo_freertos.dir/home/aselsan/Desktop/GPT_BACKUP/freertos-colibri-imx7/middleware/multicore/open-amp/rpmsg/rpmsg_ext.c.obj
 .comment       0x00000000       0x71 CMakeFiles/str_echo_freertos.dir/home/aselsan/Desktop/GPT_BACKUP/freertos-colibri-imx7/middleware/multicore/open-amp/rpmsg/rpmsg_rtos.c.obj
 .comment       0x00000000       0x71 CMakeFiles/str_echo_freertos.dir/home/aselsan/Desktop/GPT_BACKUP/freertos-colibri-imx7/middleware/multicore/open-amp/virtio/virtqueue.c.obj
 .comment       0x00000000       0x71 CMakeFiles/str_echo_freertos.dir/home/aselsan/Desktop/GPT_BACKUP/freertos-colibri-imx7/platform/devices/MCIMX7D/startup/system_MCIMX7D_M4.c.obj
 .comment       0x00000000       0x71 CMakeFiles/str_echo_freertos.dir/home/aselsan/Desktop/GPT_BACKUP/freertos-colibri-imx7/platform/drivers/src/ccm_analog_imx7d.c.obj
 .comment       0x00000000       0x71 CMakeFiles/str_echo_freertos.dir/home/aselsan/Desktop/GPT_BACKUP/freertos-colibri-imx7/platform/drivers/src/ccm_imx7d.c.obj
 .comment       0x00000000       0x71 CMakeFiles/str_echo_freertos.dir/home/aselsan/Desktop/GPT_BACKUP/freertos-colibri-imx7/platform/drivers/src/mu_imx.c.obj
 .comment       0x00000000       0x71 CMakeFiles/str_echo_freertos.dir/home/aselsan/Desktop/GPT_BACKUP/freertos-colibri-imx7/platform/drivers/src/uart_imx.c.obj
 .comment       0x00000000       0x71 CMakeFiles/str_echo_freertos.dir/home/aselsan/Desktop/GPT_BACKUP/freertos-colibri-imx7/platform/drivers/src/gpt.c.obj
 .comment       0x00000000       0x71 CMakeFiles/str_echo_freertos.dir/home/aselsan/Desktop/GPT_BACKUP/freertos-colibri-imx7/platform/drivers/src/gpio_imx.c.obj
 .comment       0x00000000       0x71 CMakeFiles/str_echo_freertos.dir/home/aselsan/Desktop/GPT_BACKUP/freertos-colibri-imx7/platform/utilities/src/debug_console_imx.c.obj
 .comment       0x00000000       0x71 CMakeFiles/str_echo_freertos.dir/home/aselsan/Desktop/GPT_BACKUP/freertos-colibri-imx7/platform/drivers/src/i2c_imx.c.obj
 .comment       0x00000000       0x71 CMakeFiles/str_echo_freertos.dir/home/aselsan/Desktop/GPT_BACKUP/freertos-colibri-imx7/platform/utilities/src/print_scan.c.obj
 .comment       0x00000000       0x71 CMakeFiles/str_echo_freertos.dir/home/aselsan/Desktop/GPT_BACKUP/freertos-colibri-imx7/rtos/FreeRTOS/Source/list.c.obj
 .comment       0x00000000       0x71 CMakeFiles/str_echo_freertos.dir/home/aselsan/Desktop/GPT_BACKUP/freertos-colibri-imx7/rtos/FreeRTOS/Source/portable/GCC/ARM_CM4F/port.c.obj
 .comment       0x00000000       0x71 CMakeFiles/str_echo_freertos.dir/home/aselsan/Desktop/GPT_BACKUP/freertos-colibri-imx7/rtos/FreeRTOS/Source/portable/MemMang/heap_2.c.obj
 .comment       0x00000000       0x71 CMakeFiles/str_echo_freertos.dir/home/aselsan/Desktop/GPT_BACKUP/freertos-colibri-imx7/rtos/FreeRTOS/Source/queue.c.obj
 .comment       0x00000000       0x71 CMakeFiles/str_echo_freertos.dir/home/aselsan/Desktop/GPT_BACKUP/freertos-colibri-imx7/rtos/FreeRTOS/Source/tasks.c.obj
 .comment       0x00000000       0x71 CMakeFiles/str_echo_freertos.dir/home/aselsan/Desktop/GPT_BACKUP/freertos-colibri-imx7/examples/imx7_colibri_m4/board.c.obj
 .comment       0x00000000       0x71 CMakeFiles/str_echo_freertos.dir/home/aselsan/Desktop/GPT_BACKUP/freertos-colibri-imx7/examples/imx7_colibri_m4/gpio_pins.c.obj
 .comment       0x00000000       0x71 CMakeFiles/str_echo_freertos.dir/home/aselsan/Desktop/GPT_BACKUP/freertos-colibri-imx7/examples/imx7_colibri_m4/clock_freq.c.obj
 .comment       0x00000000       0x71 CMakeFiles/str_echo_freertos.dir/home/aselsan/Desktop/GPT_BACKUP/freertos-colibri-imx7/examples/imx7_colibri_m4/pin_mux.c.obj
 .comment       0x00000000       0x71 CMakeFiles/str_echo_freertos.dir/home/aselsan/Desktop/GPT_BACKUP/freertos-colibri-imx7/examples/imx7_colibri_m4/demo_apps/rpmsg/str_echo_freertos/hardware_init.c.obj
 .comment       0x00000000       0x71 CMakeFiles/str_echo_freertos.dir/home/aselsan/Desktop/GPT_BACKUP/freertos-colibri-imx7/examples/imx7_colibri_m4/demo_apps/rpmsg/str_echo_freertos/str_echo_freertos.c.obj
 .comment       0x00000000       0x71 CMakeFiles/str_echo_freertos.dir/home/aselsan/Desktop/GPT_BACKUP/freertos-colibri-imx7/examples/imx7_colibri_m4/demo_apps/rpmsg/str_echo_freertos/timer.c.obj
 .comment       0x00000000       0x71 CMakeFiles/str_echo_freertos.dir/home/aselsan/Desktop/GPT_BACKUP/freertos-colibri-imx7/examples/imx7_colibri_m4/demo_apps/rpmsg/str_echo_freertos/gpio.c.obj
 .comment       0x00000000       0x71 CMakeFiles/str_echo_freertos.dir/home/aselsan/Desktop/GPT_BACKUP/freertos-colibri-imx7/examples/imx7_colibri_m4/demo_apps/rpmsg/str_echo_freertos/i2c.c.obj
 .comment       0x00000000       0x71 CMakeFiles/str_echo_freertos.dir/home/aselsan/Desktop/GPT_BACKUP/freertos-colibri-imx7/examples/imx7_colibri_m4/demo_apps/rpmsg/str_echo_freertos/comm_skb.c.obj

.debug_frame    0x00000000     0x303c
 .debug_frame   0x00000000      0x168 CMakeFiles/str_echo_freertos.dir/home/aselsan/Desktop/GPT_BACKUP/freertos-colibri-imx7/middleware/multicore/open-amp/common/hil/hil.c.obj
 .debug_frame   0x00000168       0x30 CMakeFiles/str_echo_freertos.dir/home/aselsan/Desktop/GPT_BACKUP/freertos-colibri-imx7/middleware/multicore/open-amp/common/llist/llist.c.obj
 .debug_frame   0x00000198       0xcc CMakeFiles/str_echo_freertos.dir/home/aselsan/Desktop/GPT_BACKUP/freertos-colibri-imx7/middleware/multicore/open-amp/common/shm/sh_mem.c.obj
 .debug_frame   0x00000264      0x3c4 CMakeFiles/str_echo_freertos.dir/home/aselsan/Desktop/GPT_BACKUP/freertos-colibri-imx7/middleware/multicore/open-amp/porting/env/freertos/rpmsg_porting.c.obj
 .debug_frame   0x00000628      0x19c CMakeFiles/str_echo_freertos.dir/home/aselsan/Desktop/GPT_BACKUP/freertos-colibri-imx7/middleware/multicore/open-amp/porting/imx7d_m4/platform.c.obj
 .debug_frame   0x000007c4       0x38 CMakeFiles/str_echo_freertos.dir/home/aselsan/Desktop/GPT_BACKUP/freertos-colibri-imx7/middleware/multicore/open-amp/porting/imx7d_m4/platform_info.c.obj
 .debug_frame   0x000007fc      0x19c CMakeFiles/str_echo_freertos.dir/home/aselsan/Desktop/GPT_BACKUP/freertos-colibri-imx7/middleware/multicore/open-amp/rpmsg/remote_device.c.obj
 .debug_frame   0x00000998      0x168 CMakeFiles/str_echo_freertos.dir/home/aselsan/Desktop/GPT_BACKUP/freertos-colibri-imx7/middleware/multicore/open-amp/rpmsg/rpmsg.c.obj
 .debug_frame   0x00000b00      0x218 CMakeFiles/str_echo_freertos.dir/home/aselsan/Desktop/GPT_BACKUP/freertos-colibri-imx7/middleware/multicore/open-amp/rpmsg/rpmsg_core.c.obj
 .debug_frame   0x00000d18       0xac CMakeFiles/str_echo_freertos.dir/home/aselsan/Desktop/GPT_BACKUP/freertos-colibri-imx7/middleware/multicore/open-amp/rpmsg/rpmsg_ext.c.obj
 .debug_frame   0x00000dc4      0x1e4 CMakeFiles/str_echo_freertos.dir/home/aselsan/Desktop/GPT_BACKUP/freertos-colibri-imx7/middleware/multicore/open-amp/rpmsg/rpmsg_rtos.c.obj
 .debug_frame   0x00000fa8      0x268 CMakeFiles/str_echo_freertos.dir/home/aselsan/Desktop/GPT_BACKUP/freertos-colibri-imx7/middleware/multicore/open-amp/virtio/virtqueue.c.obj
 .debug_frame   0x00001210       0x3c CMakeFiles/str_echo_freertos.dir/home/aselsan/Desktop/GPT_BACKUP/freertos-colibri-imx7/platform/devices/MCIMX7D/startup/system_MCIMX7D_M4.c.obj
 .debug_frame   0x0000124c       0xac CMakeFiles/str_echo_freertos.dir/home/aselsan/Desktop/GPT_BACKUP/freertos-colibri-imx7/platform/drivers/src/ccm_analog_imx7d.c.obj
 .debug_frame   0x000012f8       0x5c CMakeFiles/str_echo_freertos.dir/home/aselsan/Desktop/GPT_BACKUP/freertos-colibri-imx7/platform/drivers/src/ccm_imx7d.c.obj
 .debug_frame   0x00001354       0xa0 CMakeFiles/str_echo_freertos.dir/home/aselsan/Desktop/GPT_BACKUP/freertos-colibri-imx7/platform/drivers/src/mu_imx.c.obj
 .debug_frame   0x000013f4      0x208 CMakeFiles/str_echo_freertos.dir/home/aselsan/Desktop/GPT_BACKUP/freertos-colibri-imx7/platform/drivers/src/uart_imx.c.obj
 .debug_frame   0x000015fc       0x50 CMakeFiles/str_echo_freertos.dir/home/aselsan/Desktop/GPT_BACKUP/freertos-colibri-imx7/platform/drivers/src/gpt.c.obj
 .debug_frame   0x0000164c       0x78 CMakeFiles/str_echo_freertos.dir/home/aselsan/Desktop/GPT_BACKUP/freertos-colibri-imx7/platform/drivers/src/gpio_imx.c.obj
 .debug_frame   0x000016c4      0x1b4 CMakeFiles/str_echo_freertos.dir/home/aselsan/Desktop/GPT_BACKUP/freertos-colibri-imx7/platform/utilities/src/debug_console_imx.c.obj
 .debug_frame   0x00001878       0x74 CMakeFiles/str_echo_freertos.dir/home/aselsan/Desktop/GPT_BACKUP/freertos-colibri-imx7/platform/drivers/src/i2c_imx.c.obj
 .debug_frame   0x000018ec       0xc8 CMakeFiles/str_echo_freertos.dir/home/aselsan/Desktop/GPT_BACKUP/freertos-colibri-imx7/platform/utilities/src/print_scan.c.obj
 .debug_frame   0x000019b4       0x6c CMakeFiles/str_echo_freertos.dir/home/aselsan/Desktop/GPT_BACKUP/freertos-colibri-imx7/rtos/FreeRTOS/Source/list.c.obj
 .debug_frame   0x00001a20       0xf0 CMakeFiles/str_echo_freertos.dir/home/aselsan/Desktop/GPT_BACKUP/freertos-colibri-imx7/rtos/FreeRTOS/Source/portable/GCC/ARM_CM4F/port.c.obj
 .debug_frame   0x00001b10       0x80 CMakeFiles/str_echo_freertos.dir/home/aselsan/Desktop/GPT_BACKUP/freertos-colibri-imx7/rtos/FreeRTOS/Source/portable/MemMang/heap_2.c.obj
 .debug_frame   0x00001b90      0x23c CMakeFiles/str_echo_freertos.dir/home/aselsan/Desktop/GPT_BACKUP/freertos-colibri-imx7/rtos/FreeRTOS/Source/queue.c.obj
 .debug_frame   0x00001dcc      0x390 CMakeFiles/str_echo_freertos.dir/home/aselsan/Desktop/GPT_BACKUP/freertos-colibri-imx7/rtos/FreeRTOS/Source/tasks.c.obj
 .debug_frame   0x0000215c       0x68 CMakeFiles/str_echo_freertos.dir/home/aselsan/Desktop/GPT_BACKUP/freertos-colibri-imx7/examples/imx7_colibri_m4/board.c.obj
 .debug_frame   0x000021c4       0x28 CMakeFiles/str_echo_freertos.dir/home/aselsan/Desktop/GPT_BACKUP/freertos-colibri-imx7/examples/imx7_colibri_m4/gpio_pins.c.obj
 .debug_frame   0x000021ec       0xb0 CMakeFiles/str_echo_freertos.dir/home/aselsan/Desktop/GPT_BACKUP/freertos-colibri-imx7/examples/imx7_colibri_m4/clock_freq.c.obj
 .debug_frame   0x0000229c       0x58 CMakeFiles/str_echo_freertos.dir/home/aselsan/Desktop/GPT_BACKUP/freertos-colibri-imx7/examples/imx7_colibri_m4/pin_mux.c.obj
 .debug_frame   0x000022f4       0x3c CMakeFiles/str_echo_freertos.dir/home/aselsan/Desktop/GPT_BACKUP/freertos-colibri-imx7/examples/imx7_colibri_m4/demo_apps/rpmsg/str_echo_freertos/hardware_init.c.obj
 .debug_frame   0x00002330       0x40 CMakeFiles/str_echo_freertos.dir/home/aselsan/Desktop/GPT_BACKUP/freertos-colibri-imx7/examples/imx7_colibri_m4/demo_apps/rpmsg/str_echo_freertos/str_echo_freertos.c.obj
 .debug_frame   0x00002370       0x40 CMakeFiles/str_echo_freertos.dir/home/aselsan/Desktop/GPT_BACKUP/freertos-colibri-imx7/examples/imx7_colibri_m4/demo_apps/rpmsg/str_echo_freertos/timer.c.obj
 .debug_frame   0x000023b0       0x8c CMakeFiles/str_echo_freertos.dir/home/aselsan/Desktop/GPT_BACKUP/freertos-colibri-imx7/examples/imx7_colibri_m4/demo_apps/rpmsg/str_echo_freertos/gpio.c.obj
 .debug_frame   0x0000243c       0xec CMakeFiles/str_echo_freertos.dir/home/aselsan/Desktop/GPT_BACKUP/freertos-colibri-imx7/examples/imx7_colibri_m4/demo_apps/rpmsg/str_echo_freertos/i2c.c.obj
 .debug_frame   0x00002528      0x114 CMakeFiles/str_echo_freertos.dir/home/aselsan/Desktop/GPT_BACKUP/freertos-colibri-imx7/examples/imx7_colibri_m4/demo_apps/rpmsg/str_echo_freertos/comm_skb.c.obj
 .debug_frame   0x0000263c       0x40 /home/aselsan/Desktop/IMX7/toolchain/gcc-arm-none-eabi-4_9-2015q3/bin/../lib/gcc/arm-none-eabi/4.9.3/../../../../arm-none-eabi/lib/armv7e-m/fpu/libc_nano.a(lib_a-assert.o)
 .debug_frame   0x0000267c       0x28 /home/aselsan/Desktop/IMX7/toolchain/gcc-arm-none-eabi-4_9-2015q3/bin/../lib/gcc/arm-none-eabi/4.9.3/../../../../arm-none-eabi/lib/armv7e-m/fpu/libc_nano.a(lib_a-exit.o)
 .debug_frame   0x000026a4       0x64 /home/aselsan/Desktop/IMX7/toolchain/gcc-arm-none-eabi-4_9-2015q3/bin/../lib/gcc/arm-none-eabi/4.9.3/../../../../arm-none-eabi/lib/armv7e-m/fpu/libc_nano.a(lib_a-fprintf.o)
 .debug_frame   0x00002708       0x2c /home/aselsan/Desktop/IMX7/toolchain/gcc-arm-none-eabi-4_9-2015q3/bin/../lib/gcc/arm-none-eabi/4.9.3/../../../../arm-none-eabi/lib/armv7e-m/fpu/libc_nano.a(lib_a-init.o)
 .debug_frame   0x00002734       0x28 /home/aselsan/Desktop/IMX7/toolchain/gcc-arm-none-eabi-4_9-2015q3/bin/../lib/gcc/arm-none-eabi/4.9.3/../../../../arm-none-eabi/lib/armv7e-m/fpu/libc_nano.a(lib_a-memcpy.o)
 .debug_frame   0x0000275c       0x20 /home/aselsan/Desktop/IMX7/toolchain/gcc-arm-none-eabi-4_9-2015q3/bin/../lib/gcc/arm-none-eabi/4.9.3/../../../../arm-none-eabi/lib/armv7e-m/fpu/libc_nano.a(lib_a-memset.o)
 .debug_frame   0x0000277c       0xb8 /home/aselsan/Desktop/IMX7/toolchain/gcc-arm-none-eabi-4_9-2015q3/bin/../lib/gcc/arm-none-eabi/4.9.3/../../../../arm-none-eabi/lib/armv7e-m/fpu/libc_nano.a(lib_a-nano-vfprintf.o)
 .debug_frame   0x00002834       0x58 /home/aselsan/Desktop/IMX7/toolchain/gcc-arm-none-eabi-4_9-2015q3/bin/../lib/gcc/arm-none-eabi/4.9.3/../../../../arm-none-eabi/lib/armv7e-m/fpu/libc_nano.a(lib_a-nano-vfprintf_i.o)
 .debug_frame   0x0000288c       0x20 /home/aselsan/Desktop/IMX7/toolchain/gcc-arm-none-eabi-4_9-2015q3/bin/../lib/gcc/arm-none-eabi/4.9.3/../../../../arm-none-eabi/lib/armv7e-m/fpu/libc_nano.a(lib_a-strlen.o)
 .debug_frame   0x000028ac       0x2c /home/aselsan/Desktop/IMX7/toolchain/gcc-arm-none-eabi-4_9-2015q3/bin/../lib/gcc/arm-none-eabi/4.9.3/../../../../arm-none-eabi/lib/armv7e-m/fpu/libc_nano.a(lib_a-strncmp.o)
 .debug_frame   0x000028d8       0x28 /home/aselsan/Desktop/IMX7/toolchain/gcc-arm-none-eabi-4_9-2015q3/bin/../lib/gcc/arm-none-eabi/4.9.3/../../../../arm-none-eabi/lib/armv7e-m/fpu/libc_nano.a(lib_a-strncpy.o)
 .debug_frame   0x00002900       0x3c /home/aselsan/Desktop/IMX7/toolchain/gcc-arm-none-eabi-4_9-2015q3/bin/../lib/gcc/arm-none-eabi/4.9.3/../../../../arm-none-eabi/lib/armv7e-m/fpu/libc_nano.a(lib_a-wbuf.o)
 .debug_frame   0x0000293c       0x2c /home/aselsan/Desktop/IMX7/toolchain/gcc-arm-none-eabi-4_9-2015q3/bin/../lib/gcc/arm-none-eabi/4.9.3/../../../../arm-none-eabi/lib/armv7e-m/fpu/libc_nano.a(lib_a-wsetup.o)
 .debug_frame   0x00002968       0x28 /home/aselsan/Desktop/IMX7/toolchain/gcc-arm-none-eabi-4_9-2015q3/bin/../lib/gcc/arm-none-eabi/4.9.3/../../../../arm-none-eabi/lib/armv7e-m/fpu/libc_nano.a(lib_a-abort.o)
 .debug_frame   0x00002990       0x68 /home/aselsan/Desktop/IMX7/toolchain/gcc-arm-none-eabi-4_9-2015q3/bin/../lib/gcc/arm-none-eabi/4.9.3/../../../../arm-none-eabi/lib/armv7e-m/fpu/libc_nano.a(lib_a-fflush.o)
 .debug_frame   0x000029f8      0x11c /home/aselsan/Desktop/IMX7/toolchain/gcc-arm-none-eabi-4_9-2015q3/bin/../lib/gcc/arm-none-eabi/4.9.3/../../../../arm-none-eabi/lib/armv7e-m/fpu/libc_nano.a(lib_a-findfp.o)
 .debug_frame   0x00002b14       0x54 /home/aselsan/Desktop/IMX7/toolchain/gcc-arm-none-eabi-4_9-2015q3/bin/../lib/gcc/arm-none-eabi/4.9.3/../../../../arm-none-eabi/lib/armv7e-m/fpu/libc_nano.a(lib_a-fwalk.o)
 .debug_frame   0x00002b68       0x34 /home/aselsan/Desktop/IMX7/toolchain/gcc-arm-none-eabi-4_9-2015q3/bin/../lib/gcc/arm-none-eabi/4.9.3/../../../../arm-none-eabi/lib/armv7e-m/fpu/libc_nano.a(lib_a-makebuf.o)
 .debug_frame   0x00002b9c       0x28 /home/aselsan/Desktop/IMX7/toolchain/gcc-arm-none-eabi-4_9-2015q3/bin/../lib/gcc/arm-none-eabi/4.9.3/../../../../arm-none-eabi/lib/armv7e-m/fpu/libc_nano.a(lib_a-memchr.o)
 .debug_frame   0x00002bc4       0x2c /home/aselsan/Desktop/IMX7/toolchain/gcc-arm-none-eabi-4_9-2015q3/bin/../lib/gcc/arm-none-eabi/4.9.3/../../../../arm-none-eabi/lib/armv7e-m/fpu/libc_nano.a(lib_a-nano-freer.o)
 .debug_frame   0x00002bf0       0x2c /home/aselsan/Desktop/IMX7/toolchain/gcc-arm-none-eabi-4_9-2015q3/bin/../lib/gcc/arm-none-eabi/4.9.3/../../../../arm-none-eabi/lib/armv7e-m/fpu/libc_nano.a(lib_a-nano-mallocr.o)
 .debug_frame   0x00002c1c       0x2c /home/aselsan/Desktop/IMX7/toolchain/gcc-arm-none-eabi-4_9-2015q3/bin/../lib/gcc/arm-none-eabi/4.9.3/../../../../arm-none-eabi/lib/armv7e-m/fpu/libc_nano.a(lib_a-sbrkr.o)
 .debug_frame   0x00002c48       0xcc /home/aselsan/Desktop/IMX7/toolchain/gcc-arm-none-eabi-4_9-2015q3/bin/../lib/gcc/arm-none-eabi/4.9.3/../../../../arm-none-eabi/lib/armv7e-m/fpu/libc_nano.a(lib_a-signal.o)
 .debug_frame   0x00002d14       0x3c /home/aselsan/Desktop/IMX7/toolchain/gcc-arm-none-eabi-4_9-2015q3/bin/../lib/gcc/arm-none-eabi/4.9.3/../../../../arm-none-eabi/lib/armv7e-m/fpu/libc_nano.a(lib_a-signalr.o)
 .debug_frame   0x00002d50       0x88 /home/aselsan/Desktop/IMX7/toolchain/gcc-arm-none-eabi-4_9-2015q3/bin/../lib/gcc/arm-none-eabi/4.9.3/../../../../arm-none-eabi/lib/armv7e-m/fpu/libc_nano.a(lib_a-stdio.o)
 .debug_frame   0x00002dd8       0x2c /home/aselsan/Desktop/IMX7/toolchain/gcc-arm-none-eabi-4_9-2015q3/bin/../lib/gcc/arm-none-eabi/4.9.3/../../../../arm-none-eabi/lib/armv7e-m/fpu/libc_nano.a(lib_a-writer.o)
 .debug_frame   0x00002e04       0x2c /home/aselsan/Desktop/IMX7/toolchain/gcc-arm-none-eabi-4_9-2015q3/bin/../lib/gcc/arm-none-eabi/4.9.3/../../../../arm-none-eabi/lib/armv7e-m/fpu/libc_nano.a(lib_a-closer.o)
 .debug_frame   0x00002e30       0x2c /home/aselsan/Desktop/IMX7/toolchain/gcc-arm-none-eabi-4_9-2015q3/bin/../lib/gcc/arm-none-eabi/4.9.3/../../../../arm-none-eabi/lib/armv7e-m/fpu/libc_nano.a(lib_a-fstatr.o)
 .debug_frame   0x00002e5c       0x2c /home/aselsan/Desktop/IMX7/toolchain/gcc-arm-none-eabi-4_9-2015q3/bin/../lib/gcc/arm-none-eabi/4.9.3/../../../../arm-none-eabi/lib/armv7e-m/fpu/libc_nano.a(lib_a-isattyr.o)
 .debug_frame   0x00002e88       0x2c /home/aselsan/Desktop/IMX7/toolchain/gcc-arm-none-eabi-4_9-2015q3/bin/../lib/gcc/arm-none-eabi/4.9.3/../../../../arm-none-eabi/lib/armv7e-m/fpu/libc_nano.a(lib_a-lseekr.o)
 .debug_frame   0x00002eb4       0x2c /home/aselsan/Desktop/IMX7/toolchain/gcc-arm-none-eabi-4_9-2015q3/bin/../lib/gcc/arm-none-eabi/4.9.3/../../../../arm-none-eabi/lib/armv7e-m/fpu/libc_nano.a(lib_a-readr.o)
 .debug_frame   0x00002ee0       0x5c /home/aselsan/Desktop/IMX7/toolchain/gcc-arm-none-eabi-4_9-2015q3/bin/../lib/gcc/arm-none-eabi/4.9.3/../../../../arm-none-eabi/lib/armv7e-m/fpu/libc_nano.a(lib_a-reent.o)
 .debug_frame   0x00002f3c       0x20 /home/aselsan/Desktop/IMX7/toolchain/gcc-arm-none-eabi-4_9-2015q3/bin/../lib/gcc/arm-none-eabi/4.9.3/../../../../arm-none-eabi/lib/armv7e-m/fpu/libnosys.a(close.o)
 .debug_frame   0x00002f5c       0x20 /home/aselsan/Desktop/IMX7/toolchain/gcc-arm-none-eabi-4_9-2015q3/bin/../lib/gcc/arm-none-eabi/4.9.3/../../../../arm-none-eabi/lib/armv7e-m/fpu/libnosys.a(fstat.o)
 .debug_frame   0x00002f7c       0x20 /home/aselsan/Desktop/IMX7/toolchain/gcc-arm-none-eabi-4_9-2015q3/bin/../lib/gcc/arm-none-eabi/4.9.3/../../../../arm-none-eabi/lib/armv7e-m/fpu/libnosys.a(getpid.o)
 .debug_frame   0x00002f9c       0x20 /home/aselsan/Desktop/IMX7/toolchain/gcc-arm-none-eabi-4_9-2015q3/bin/../lib/gcc/arm-none-eabi/4.9.3/../../../../arm-none-eabi/lib/armv7e-m/fpu/libnosys.a(isatty.o)
 .debug_frame   0x00002fbc       0x20 /home/aselsan/Desktop/IMX7/toolchain/gcc-arm-none-eabi-4_9-2015q3/bin/../lib/gcc/arm-none-eabi/4.9.3/../../../../arm-none-eabi/lib/armv7e-m/fpu/libnosys.a(kill.o)
 .debug_frame   0x00002fdc       0x20 /home/aselsan/Desktop/IMX7/toolchain/gcc-arm-none-eabi-4_9-2015q3/bin/../lib/gcc/arm-none-eabi/4.9.3/../../../../arm-none-eabi/lib/armv7e-m/fpu/libnosys.a(lseek.o)
 .debug_frame   0x00002ffc       0x20 /home/aselsan/Desktop/IMX7/toolchain/gcc-arm-none-eabi-4_9-2015q3/bin/../lib/gcc/arm-none-eabi/4.9.3/../../../../arm-none-eabi/lib/armv7e-m/fpu/libnosys.a(sbrk.o)
 .debug_frame   0x0000301c       0x20 /home/aselsan/Desktop/IMX7/toolchain/gcc-arm-none-eabi-4_9-2015q3/bin/../lib/gcc/arm-none-eabi/4.9.3/../../../../arm-none-eabi/lib/armv7e-m/fpu/libnosys.a(_exit.o)

.stab           0x00000000       0x9c
 .stab          0x00000000       0x24 /home/aselsan/Desktop/IMX7/toolchain/gcc-arm-none-eabi-4_9-2015q3/bin/../lib/gcc/arm-none-eabi/4.9.3/../../../../arm-none-eabi/lib/armv7e-m/fpu/libnosys.a(close.o)
 .stab          0x00000024       0x18 /home/aselsan/Desktop/IMX7/toolchain/gcc-arm-none-eabi-4_9-2015q3/bin/../lib/gcc/arm-none-eabi/4.9.3/../../../../arm-none-eabi/lib/armv7e-m/fpu/libnosys.a(fstat.o)
                                 0x24 (size before relaxing)
 .stab          0x0000003c       0x18 /home/aselsan/Desktop/IMX7/toolchain/gcc-arm-none-eabi-4_9-2015q3/bin/../lib/gcc/arm-none-eabi/4.9.3/../../../../arm-none-eabi/lib/armv7e-m/fpu/libnosys.a(getpid.o)
                                 0x24 (size before relaxing)
 .stab          0x00000054       0x18 /home/aselsan/Desktop/IMX7/toolchain/gcc-arm-none-eabi-4_9-2015q3/bin/../lib/gcc/arm-none-eabi/4.9.3/../../../../arm-none-eabi/lib/armv7e-m/fpu/libnosys.a(isatty.o)
                                 0x24 (size before relaxing)
 .stab          0x0000006c       0x18 /home/aselsan/Desktop/IMX7/toolchain/gcc-arm-none-eabi-4_9-2015q3/bin/../lib/gcc/arm-none-eabi/4.9.3/../../../../arm-none-eabi/lib/armv7e-m/fpu/libnosys.a(kill.o)
                                 0x24 (size before relaxing)
 .stab          0x00000084       0x18 /home/aselsan/Desktop/IMX7/toolchain/gcc-arm-none-eabi-4_9-2015q3/bin/../lib/gcc/arm-none-eabi/4.9.3/../../../../arm-none-eabi/lib/armv7e-m/fpu/libnosys.a(lseek.o)
                                 0x24 (size before relaxing)

.stabstr        0x00000000      0x14f
 .stabstr       0x00000000      0x14f /home/aselsan/Desktop/IMX7/toolchain/gcc-arm-none-eabi-4_9-2015q3/bin/../lib/gcc/arm-none-eabi/4.9.3/../../../../arm-none-eabi/lib/armv7e-m/fpu/libnosys.a(close.o)
